Component: ARM Compiler 5.06 update 6 (build 750) Tool: armlink [4d35ed]

==============================================================================

Section Cross References

    startup_stm32f407xx.o(RESET) refers to startup_stm32f407xx.o(STACK) for __initial_sp
    startup_stm32f407xx.o(RESET) refers to startup_stm32f407xx.o(.text) for Reset_Handler
    startup_stm32f407xx.o(RESET) refers to stm32f4xx_it.o(i.NMI_Handler) for NMI_Handler
    startup_stm32f407xx.o(RESET) refers to stm32f4xx_it.o(i.HardFault_Handler) for HardFault_Handler
    startup_stm32f407xx.o(RESET) refers to stm32f4xx_it.o(i.MemManage_Handler) for MemManage_Handler
    startup_stm32f407xx.o(RESET) refers to stm32f4xx_it.o(i.BusFault_Handler) for BusFault_Handler
    startup_stm32f407xx.o(RESET) refers to stm32f4xx_it.o(i.UsageFault_Handler) for UsageFault_Handler
    startup_stm32f407xx.o(RESET) refers to stm32f4xx_it.o(i.SVC_Handler) for SVC_Handler
    startup_stm32f407xx.o(RESET) refers to stm32f4xx_it.o(i.DebugMon_Handler) for DebugMon_Handler
    startup_stm32f407xx.o(RESET) refers to stm32f4xx_it.o(i.PendSV_Handler) for PendSV_Handler
    startup_stm32f407xx.o(RESET) refers to stm32f4xx_it.o(i.SysTick_Handler) for SysTick_Handler
    startup_stm32f407xx.o(RESET) refers to stm32f4xx_it.o(i.EXTI0_IRQHandler) for EXTI0_IRQHandler
    startup_stm32f407xx.o(RESET) refers to stm32f4xx_it.o(i.EXTI1_IRQHandler) for EXTI1_IRQHandler
    startup_stm32f407xx.o(RESET) refers to stm32f4xx_it.o(i.EXTI2_IRQHandler) for EXTI2_IRQHandler
    startup_stm32f407xx.o(RESET) refers to stm32f4xx_it.o(i.EXTI3_IRQHandler) for EXTI3_IRQHandler
    startup_stm32f407xx.o(RESET) refers to stm32f4xx_it.o(i.EXTI4_IRQHandler) for EXTI4_IRQHandler
    startup_stm32f407xx.o(RESET) refers to stm32f4xx_it.o(i.ADC_IRQHandler) for ADC_IRQHandler
    startup_stm32f407xx.o(RESET) refers to stm32f4xx_it.o(i.EXTI9_5_IRQHandler) for EXTI9_5_IRQHandler
    startup_stm32f407xx.o(RESET) refers to stm32f4xx_it.o(i.TIM1_BRK_TIM9_IRQHandler) for TIM1_BRK_TIM9_IRQHandler
    startup_stm32f407xx.o(RESET) refers to stm32f4xx_it.o(i.TIM1_UP_TIM10_IRQHandler) for TIM1_UP_TIM10_IRQHandler
    startup_stm32f407xx.o(RESET) refers to stm32f4xx_it.o(i.USART3_IRQHandler) for USART3_IRQHandler
    startup_stm32f407xx.o(RESET) refers to stm32f4xx_it.o(i.EXTI15_10_IRQHandler) for EXTI15_10_IRQHandler
    startup_stm32f407xx.o(RESET) refers to stm32f4xx_it.o(i.TIM8_BRK_TIM12_IRQHandler) for TIM8_BRK_TIM12_IRQHandler
    startup_stm32f407xx.o(RESET) refers to stm32f4xx_it.o(i.TIM5_IRQHandler) for TIM5_IRQHandler
    startup_stm32f407xx.o(RESET) refers to canopen_timer.o(i.TIM6_DAC_IRQHandler) for TIM6_DAC_IRQHandler
    startup_stm32f407xx.o(RESET) refers to stm32f4xx_it.o(i.TIM7_IRQHandler) for TIM7_IRQHandler
    startup_stm32f407xx.o(RESET) refers to stm32f4xx_it.o(i.DMA2_Stream0_IRQHandler) for DMA2_Stream0_IRQHandler
    startup_stm32f407xx.o(RESET) refers to stm32f4xx_it.o(i.CAN2_RX0_IRQHandler) for CAN2_RX0_IRQHandler
    startup_stm32f407xx.o(.text) refers to system_stm32f4xx.o(i.SystemInit) for SystemInit
    startup_stm32f407xx.o(.text) refers to entry.o(.ARM.Collect$$$$00000000) for __main
    main.o(i.CAN1_Send_Msg) refers to stm32f4xx_hal_can.o(i.HAL_CAN_Transmit) for HAL_CAN_Transmit
    main.o(i.CAN1_Send_Msg) refers to main.o(.bss) for hcan2
    main.o(i.CAN1_Send_Msg) refers to canopen_od.o(.bss) for CanLoadRate
    main.o(i.HAL_CAN_RxCpltCallback) refers to canopen_nmt.o(i.MessageType_Check) for MessageType_Check
    main.o(i.HAL_CAN_RxCpltCallback) refers to stm32f4xx_hal_can.o(i.HAL_CAN_Receive_IT) for HAL_CAN_Receive_IT
    main.o(i.HAL_CAN_RxCpltCallback) refers to canopen_od.o(.data) for CANopen_Drive
    main.o(i.HAL_CAN_RxCpltCallback) refers to canopen_od.o(.bss) for CanLoadRate
    main.o(i.HAL_SYSTICK_Callback) refers to stm32f4xx_hal.o(i.HAL_GetTick) for HAL_GetTick
    main.o(i.HAL_SYSTICK_Callback) refers to function.o(i.BLDC_Stuck_Chk) for BLDC_Stuck_Chk
    main.o(i.HAL_SYSTICK_Callback) refers to stm32f4xx_hal_cortex.o(i.HAL_NVIC_EnableIRQ) for HAL_NVIC_EnableIRQ
    main.o(i.HAL_SYSTICK_Callback) refers to bsp_bdcmotor.o(i.Ramp_Speed) for Ramp_Speed
    main.o(i.HAL_SYSTICK_Callback) refers to bsp_bdcmotor.o(i.GetMotorSpeed) for GetMotorSpeed
    main.o(i.HAL_SYSTICK_Callback) refers to function.o(i.BLDC1_OverSpdChk) for BLDC1_OverSpdChk
    main.o(i.HAL_SYSTICK_Callback) refers to mc_pid_regulators.o(i.PID_Regulator) for PID_Regulator
    main.o(i.HAL_SYSTICK_Callback) refers to function.o(i.BLDC2_OverSpdChk) for BLDC2_OverSpdChk
    main.o(i.HAL_SYSTICK_Callback) refers to bsp_bdcmotor.o(i.SetMotorSpeed) for SetMotorSpeed
    main.o(i.HAL_SYSTICK_Callback) refers to function.o(i.MC_SetFault) for MC_SetFault
    main.o(i.HAL_SYSTICK_Callback) refers to function.o(i.Push_Motor_Calibrate) for Push_Motor_Calibrate
    main.o(i.HAL_SYSTICK_Callback) refers to function.o(i.Push_Motor_Location_Control) for Push_Motor_Location_Control
    main.o(i.HAL_SYSTICK_Callback) refers to bsp_bdcmotor.o(i.SetMotorStop) for SetMotorStop
    main.o(i.HAL_SYSTICK_Callback) refers to function.o(i.Push_Motor_CurSelfAdapt) for Push_Motor_CurSelfAdapt
    main.o(i.HAL_SYSTICK_Callback) refers to function.o(i.Motor7_Err_Chk) for Motor7_Err_Chk
    main.o(i.HAL_SYSTICK_Callback) refers to bsp_bdcmotor.o(i.HallStudyHandle0) for HallStudyHandle0
    main.o(i.HAL_SYSTICK_Callback) refers to bsp_bdcmotor.o(i.HallStudyHandle1) for HallStudyHandle1
    main.o(i.HAL_SYSTICK_Callback) refers to main.o(.data) for SysCLC
    main.o(i.HAL_SYSTICK_Callback) refers to bsp_bdcmotor.o(.bss) for MotorControl
    main.o(i.HAL_SYSTICK_Callback) refers to mc_pid_regulators.o(.bss) for PID_Speed_InitStruct
    main.o(i.HAL_SYSTICK_Callback) refers to function.o(.data) for wGlobal_Flags
    main.o(i.HAL_SYSTICK_Callback) refers to function.o(i.Over_VoltageCheck) for Over_VoltageCheck
    main.o(i.HAL_SYSTICK_Callback) refers to stm32f4xx_hal_iwdg.o(i.HAL_IWDG_Refresh) for HAL_IWDG_Refresh
    main.o(i.HAL_SYSTICK_Callback) refers to function.o(i.Push_OverRunChk) for Push_OverRunChk
    main.o(i.HAL_SYSTICK_Callback) refers to bsp_iwdg.o(.bss) for hiwdg
    main.o(i.HAL_TIMEx_BreakCallback) refers to function.o(i.MC_SetFault) for MC_SetFault
    main.o(i.HAL_TIMEx_BreakCallback) refers to main.o(.bss) for htim1
    main.o(i.HAL_TIMEx_BreakCallback) refers to canopen_od.o(.bss) for CanLoadRate
    main.o(i.HAL_TIMEx_BreakCallback) refers to bsp_bdcmotor.o(.bss) for MotorControl
    main.o(i.HAL_TIMEx_BreakCallback) refers to main.o(.data) for errormotor5
    main.o(i.HAL_TIM_IC_CaptureCallback) refers to stm32f4xx_hal_tim.o(i.HAL_TIM_ReadCapturedValue) for HAL_TIM_ReadCapturedValue
    main.o(i.HAL_TIM_IC_CaptureCallback) refers to main.o(.bss) for htim9
    main.o(i.HAL_TIM_IC_CaptureCallback) refers to main.o(.data) for CH2TEMP
    main.o(i.HAL_TIM_OC_DelayElapsedCallback) refers to stm32f4xx_hal_gpio.o(i.HAL_GPIO_TogglePin) for HAL_GPIO_TogglePin
    main.o(i.HAL_TIM_OC_DelayElapsedCallback) refers to bsp_bdcmotor.o(i.BLDC1_PhaseChange) for BLDC1_PhaseChange
    main.o(i.HAL_TIM_OC_DelayElapsedCallback) refers to bsp_bdcmotor.o(i.BLDC2_PhaseChange) for BLDC2_PhaseChange
    main.o(i.HAL_TIM_OC_DelayElapsedCallback) refers to main.o(.bss) for htim5
    main.o(i.HAL_TIM_OC_DelayElapsedCallback) refers to bsp_bdcmotor.o(.bss) for MotorControl
    main.o(i.HAL_TIM_OC_DelayElapsedCallback) refers to main.o(.data) for pwmchangeflag
    main.o(i.HAL_TIM_PeriodElapsedCallback) refers to canopen_pdo.o(i._RPOD_SyncEvent) for _RPOD_SyncEvent
    main.o(i.HAL_TIM_PeriodElapsedCallback) refers to function.o(i.Push_Motor_Cheek) for Push_Motor_Cheek
    main.o(i.HAL_TIM_PeriodElapsedCallback) refers to function.o(i.MotorStuckCheck) for MotorStuckCheck
    main.o(i.HAL_TIM_PeriodElapsedCallback) refers to function.o(i.Motor5_Default_Phase_Cheek) for Motor5_Default_Phase_Cheek
    main.o(i.HAL_TIM_PeriodElapsedCallback) refers to function.o(i.Motor6_Default_Phase_Cheek) for Motor6_Default_Phase_Cheek
    main.o(i.HAL_TIM_PeriodElapsedCallback) refers to function.o(i.Voltage_offset_cali) for Voltage_offset_cali
    main.o(i.HAL_TIM_PeriodElapsedCallback) refers to main.o(i.PWM_Change) for PWM_Change
    main.o(i.HAL_TIM_PeriodElapsedCallback) refers to mc_pid_regulators.o(i.PID_Regulator) for PID_Regulator
    main.o(i.HAL_TIM_PeriodElapsedCallback) refers to bsp_bdcmotor.o(i.SetMotorSpeed) for SetMotorSpeed
    main.o(i.HAL_TIM_PeriodElapsedCallback) refers to main.o(.data) for DMA_Transfer_Complete_Count
    main.o(i.HAL_TIM_PeriodElapsedCallback) refers to canopen_od.o(.bss) for CanLoadRate
    main.o(i.HAL_TIM_PeriodElapsedCallback) refers to main.o(.bss) for htim1
    main.o(i.HAL_TIM_PeriodElapsedCallback) refers to canopen_od.o(.data) for RPDO_SYNC_SIGN
    main.o(i.HAL_TIM_PeriodElapsedCallback) refers to bsp_bdcmotor.o(.bss) for MotorControl
    main.o(i.HAL_TIM_PeriodElapsedCallback) refers to function.o(.bss) for VoltVar
    main.o(i.HAL_TIM_PeriodElapsedCallback) refers to mc_pid_regulators.o(.bss) for PID_Speed_InitStruct
    main.o(i.HAL_TIM_PeriodElapsedCallback) refers to function.o(i.MC_SetFault) for MC_SetFault
    main.o(i.HAL_TIM_PeriodElapsedCallback) refers to bsp_bdcmotor.o(i.SetMotorStop) for SetMotorStop
    main.o(i.HAL_TIM_PeriodElapsedCallback) refers to dflti.o(.text) for __aeabi_i2d
    main.o(i.HAL_TIM_PeriodElapsedCallback) refers to dmul.o(.text) for __aeabi_dmul
    main.o(i.HAL_TIM_PeriodElapsedCallback) refers to dfixi.o(.text) for __aeabi_d2iz
    main.o(i.HAL_TIM_PeriodElapsedCallback) refers to stm32f4xx_it.o(.data) for HALL_OVF_Counter
    main.o(i.Labview_uart) refers to printf3.o(i.__0printf$3) for __2printf
    main.o(i.Labview_uart) refers to main.o(.data) for uart_counter
    main.o(i.Labview_uart) refers to bsp_bdcmotor.o(.bss) for MotorControl
    main.o(i.Labview_uart) refers to function.o(.bss) for M6_100us_ac_ab_bc_cur
    main.o(i.Labview_uart) refers to function.o(.data) for testM6_100us_ac_ab_bc_cur
    main.o(i.Labview_uart) refers to main.o(.bss) for LV_TxBuffer
    main.o(i.MX_ADC1_Init) refers to stm32f4xx_hal_adc.o(i.HAL_ADC_Init) for HAL_ADC_Init
    main.o(i.MX_ADC1_Init) refers to main.o(i.Error_Handler) for Error_Handler
    main.o(i.MX_ADC1_Init) refers to stm32f4xx_hal_adc.o(i.HAL_ADC_ConfigChannel) for HAL_ADC_ConfigChannel
    main.o(i.MX_ADC1_Init) refers to stm32f4xx_hal_adc.o(i.HAL_ADC_AnalogWDGConfig) for HAL_ADC_AnalogWDGConfig
    main.o(i.MX_ADC1_Init) refers to main.o(.bss) for hadc1
    main.o(i.MX_CAN2_Init) refers to stm32f4xx_hal_can.o(i.HAL_CAN_Init) for HAL_CAN_Init
    main.o(i.MX_CAN2_Init) refers to main.o(i.Error_Handler) for Error_Handler
    main.o(i.MX_CAN2_Init) refers to stm32f4xx_hal_can.o(i.HAL_CAN_ConfigFilter) for HAL_CAN_ConfigFilter
    main.o(i.MX_CAN2_Init) refers to main.o(.bss) for hcan2
    main.o(i.MX_GPIO_Init) refers to memseta.o(.text) for __aeabi_memclr4
    main.o(i.MX_GPIO_Init) refers to stm32f4xx_hal_gpio.o(i.HAL_GPIO_WritePin) for HAL_GPIO_WritePin
    main.o(i.MX_GPIO_Init) refers to stm32f4xx_hal_gpio.o(i.HAL_GPIO_Init) for HAL_GPIO_Init
    main.o(i.MX_NVIC_Init) refers to stm32f4xx_hal_cortex.o(i.HAL_NVIC_SetPriority) for HAL_NVIC_SetPriority
    main.o(i.MX_NVIC_Init) refers to stm32f4xx_hal_cortex.o(i.HAL_NVIC_EnableIRQ) for HAL_NVIC_EnableIRQ
    main.o(i.MX_NVIC_Init) refers to stm32f4xx_hal_cortex.o(i.HAL_NVIC_DisableIRQ) for HAL_NVIC_DisableIRQ
    main.o(i.MX_TIM10_Init) refers to memseta.o(.text) for __aeabi_memclr4
    main.o(i.MX_TIM10_Init) refers to stm32f4xx_hal_tim.o(i.HAL_TIM_Base_Init) for HAL_TIM_Base_Init
    main.o(i.MX_TIM10_Init) refers to main.o(i.Error_Handler) for Error_Handler
    main.o(i.MX_TIM10_Init) refers to stm32f4xx_hal_tim.o(i.HAL_TIM_PWM_Init) for HAL_TIM_PWM_Init
    main.o(i.MX_TIM10_Init) refers to stm32f4xx_hal_tim.o(i.HAL_TIM_PWM_ConfigChannel) for HAL_TIM_PWM_ConfigChannel
    main.o(i.MX_TIM10_Init) refers to stm32f4xx_hal_msp.o(i.HAL_TIM_MspPostInit) for HAL_TIM_MspPostInit
    main.o(i.MX_TIM10_Init) refers to main.o(.bss) for htim10
    main.o(i.MX_TIM11_Init) refers to memseta.o(.text) for __aeabi_memclr4
    main.o(i.MX_TIM11_Init) refers to stm32f4xx_hal_tim.o(i.HAL_TIM_Base_Init) for HAL_TIM_Base_Init
    main.o(i.MX_TIM11_Init) refers to main.o(i.Error_Handler) for Error_Handler
    main.o(i.MX_TIM11_Init) refers to stm32f4xx_hal_tim.o(i.HAL_TIM_PWM_Init) for HAL_TIM_PWM_Init
    main.o(i.MX_TIM11_Init) refers to stm32f4xx_hal_tim.o(i.HAL_TIM_PWM_ConfigChannel) for HAL_TIM_PWM_ConfigChannel
    main.o(i.MX_TIM11_Init) refers to stm32f4xx_hal_msp.o(i.HAL_TIM_MspPostInit) for HAL_TIM_MspPostInit
    main.o(i.MX_TIM11_Init) refers to main.o(.bss) for htim11
    main.o(i.MX_TIM12_Init) refers to memseta.o(.text) for __aeabi_memclr4
    main.o(i.MX_TIM12_Init) refers to stm32f4xx_hal_tim.o(i.HAL_TIM_Base_Init) for HAL_TIM_Base_Init
    main.o(i.MX_TIM12_Init) refers to main.o(i.Error_Handler) for Error_Handler
    main.o(i.MX_TIM12_Init) refers to stm32f4xx_hal_tim.o(i.HAL_TIM_ConfigClockSource) for HAL_TIM_ConfigClockSource
    main.o(i.MX_TIM12_Init) refers to stm32f4xx_hal_tim_ex.o(i.HAL_TIMEx_MasterConfigSynchronization) for HAL_TIMEx_MasterConfigSynchronization
    main.o(i.MX_TIM12_Init) refers to stm32f4xx_hal_tim.o(i.HAL_TIM_OC_ConfigChannel) for HAL_TIM_OC_ConfigChannel
    main.o(i.MX_TIM12_Init) refers to main.o(.bss) for htim12
    main.o(i.MX_TIM1_Init) refers to memseta.o(.text) for __aeabi_memclr4
    main.o(i.MX_TIM1_Init) refers to stm32f4xx_hal_tim.o(i.HAL_TIM_Base_Init) for HAL_TIM_Base_Init
    main.o(i.MX_TIM1_Init) refers to main.o(i.Error_Handler) for Error_Handler
    main.o(i.MX_TIM1_Init) refers to stm32f4xx_hal_tim.o(i.HAL_TIM_ConfigClockSource) for HAL_TIM_ConfigClockSource
    main.o(i.MX_TIM1_Init) refers to stm32f4xx_hal_tim.o(i.HAL_TIM_PWM_Init) for HAL_TIM_PWM_Init
    main.o(i.MX_TIM1_Init) refers to stm32f4xx_hal_tim_ex.o(i.HAL_TIMEx_MasterConfigSynchronization) for HAL_TIMEx_MasterConfigSynchronization
    main.o(i.MX_TIM1_Init) refers to stm32f4xx_hal_tim.o(i.HAL_TIM_PWM_ConfigChannel) for HAL_TIM_PWM_ConfigChannel
    main.o(i.MX_TIM1_Init) refers to stm32f4xx_hal_tim_ex.o(i.HAL_TIMEx_ConfigBreakDeadTime) for HAL_TIMEx_ConfigBreakDeadTime
    main.o(i.MX_TIM1_Init) refers to stm32f4xx_hal_msp.o(i.HAL_TIM_MspPostInit) for HAL_TIM_MspPostInit
    main.o(i.MX_TIM1_Init) refers to stm32f4xx_hal_tim_ex.o(i.HAL_TIMEx_PWMN_Start) for HAL_TIMEx_PWMN_Start
    main.o(i.MX_TIM1_Init) refers to stm32f4xx_hal_tim.o(i.HAL_TIM_PWM_Start) for HAL_TIM_PWM_Start
    main.o(i.MX_TIM1_Init) refers to main.o(.bss) for htim1
    main.o(i.MX_TIM2_Init) refers to memseta.o(.text) for __aeabi_memclr4
    main.o(i.MX_TIM2_Init) refers to stm32f4xx_hal_tim.o(i.HAL_TIM_Base_Init) for HAL_TIM_Base_Init
    main.o(i.MX_TIM2_Init) refers to main.o(i.Error_Handler) for Error_Handler
    main.o(i.MX_TIM2_Init) refers to stm32f4xx_hal_tim.o(i.HAL_TIM_ConfigClockSource) for HAL_TIM_ConfigClockSource
    main.o(i.MX_TIM2_Init) refers to stm32f4xx_hal_tim.o(i.HAL_TIM_OC_Init) for HAL_TIM_OC_Init
    main.o(i.MX_TIM2_Init) refers to stm32f4xx_hal_tim_ex.o(i.HAL_TIMEx_MasterConfigSynchronization) for HAL_TIMEx_MasterConfigSynchronization
    main.o(i.MX_TIM2_Init) refers to stm32f4xx_hal_tim.o(i.HAL_TIM_OC_ConfigChannel) for HAL_TIM_OC_ConfigChannel
    main.o(i.MX_TIM2_Init) refers to stm32f4xx_hal_msp.o(i.HAL_TIM_MspPostInit) for HAL_TIM_MspPostInit
    main.o(i.MX_TIM2_Init) refers to main.o(.bss) for htim2
    main.o(i.MX_TIM3_Init) refers to memseta.o(.text) for __aeabi_memclr4
    main.o(i.MX_TIM3_Init) refers to stm32f4xx_hal_tim.o(i.HAL_TIM_Base_Init) for HAL_TIM_Base_Init
    main.o(i.MX_TIM3_Init) refers to main.o(i.Error_Handler) for Error_Handler
    main.o(i.MX_TIM3_Init) refers to stm32f4xx_hal_tim.o(i.HAL_TIM_ConfigClockSource) for HAL_TIM_ConfigClockSource
    main.o(i.MX_TIM3_Init) refers to stm32f4xx_hal_tim.o(i.HAL_TIM_OC_Init) for HAL_TIM_OC_Init
    main.o(i.MX_TIM3_Init) refers to stm32f4xx_hal_tim_ex.o(i.HAL_TIMEx_MasterConfigSynchronization) for HAL_TIMEx_MasterConfigSynchronization
    main.o(i.MX_TIM3_Init) refers to stm32f4xx_hal_tim.o(i.HAL_TIM_OC_ConfigChannel) for HAL_TIM_OC_ConfigChannel
    main.o(i.MX_TIM3_Init) refers to stm32f4xx_hal_msp.o(i.HAL_TIM_MspPostInit) for HAL_TIM_MspPostInit
    main.o(i.MX_TIM3_Init) refers to main.o(.bss) for htim3
    main.o(i.MX_TIM4_Init) refers to memseta.o(.text) for __aeabi_memclr4
    main.o(i.MX_TIM4_Init) refers to stm32f4xx_hal_tim.o(i.HAL_TIM_Base_Init) for HAL_TIM_Base_Init
    main.o(i.MX_TIM4_Init) refers to main.o(i.Error_Handler) for Error_Handler
    main.o(i.MX_TIM4_Init) refers to stm32f4xx_hal_tim.o(i.HAL_TIM_ConfigClockSource) for HAL_TIM_ConfigClockSource
    main.o(i.MX_TIM4_Init) refers to stm32f4xx_hal_tim.o(i.HAL_TIM_OC_Init) for HAL_TIM_OC_Init
    main.o(i.MX_TIM4_Init) refers to stm32f4xx_hal_tim_ex.o(i.HAL_TIMEx_MasterConfigSynchronization) for HAL_TIMEx_MasterConfigSynchronization
    main.o(i.MX_TIM4_Init) refers to stm32f4xx_hal_tim.o(i.HAL_TIM_OC_ConfigChannel) for HAL_TIM_OC_ConfigChannel
    main.o(i.MX_TIM4_Init) refers to stm32f4xx_hal_msp.o(i.HAL_TIM_MspPostInit) for HAL_TIM_MspPostInit
    main.o(i.MX_TIM4_Init) refers to main.o(.bss) for htim4
    main.o(i.MX_TIM5_Init) refers to memseta.o(.text) for __aeabi_memclr4
    main.o(i.MX_TIM5_Init) refers to stm32f4xx_hal_tim.o(i.HAL_TIM_Base_Init) for HAL_TIM_Base_Init
    main.o(i.MX_TIM5_Init) refers to main.o(i.Error_Handler) for Error_Handler
    main.o(i.MX_TIM5_Init) refers to stm32f4xx_hal_tim.o(i.HAL_TIM_ConfigClockSource) for HAL_TIM_ConfigClockSource
    main.o(i.MX_TIM5_Init) refers to stm32f4xx_hal_tim_ex.o(i.HAL_TIMEx_MasterConfigSynchronization) for HAL_TIMEx_MasterConfigSynchronization
    main.o(i.MX_TIM5_Init) refers to stm32f4xx_hal_tim.o(i.HAL_TIM_OC_ConfigChannel) for HAL_TIM_OC_ConfigChannel
    main.o(i.MX_TIM5_Init) refers to main.o(.bss) for htim5
    main.o(i.MX_TIM7_Init) refers to stm32f4xx_hal_tim.o(i.HAL_TIM_Base_Init) for HAL_TIM_Base_Init
    main.o(i.MX_TIM7_Init) refers to main.o(i.Error_Handler) for Error_Handler
    main.o(i.MX_TIM7_Init) refers to stm32f4xx_hal_tim_ex.o(i.HAL_TIMEx_MasterConfigSynchronization) for HAL_TIMEx_MasterConfigSynchronization
    main.o(i.MX_TIM7_Init) refers to main.o(.bss) for htim7
    main.o(i.MX_TIM8_Init) refers to memseta.o(.text) for __aeabi_memclr4
    main.o(i.MX_TIM8_Init) refers to stm32f4xx_hal_tim.o(i.HAL_TIM_Base_Init) for HAL_TIM_Base_Init
    main.o(i.MX_TIM8_Init) refers to main.o(i.Error_Handler) for Error_Handler
    main.o(i.MX_TIM8_Init) refers to stm32f4xx_hal_tim.o(i.HAL_TIM_ConfigClockSource) for HAL_TIM_ConfigClockSource
    main.o(i.MX_TIM8_Init) refers to stm32f4xx_hal_tim.o(i.HAL_TIM_PWM_Init) for HAL_TIM_PWM_Init
    main.o(i.MX_TIM8_Init) refers to stm32f4xx_hal_tim_ex.o(i.HAL_TIMEx_MasterConfigSynchronization) for HAL_TIMEx_MasterConfigSynchronization
    main.o(i.MX_TIM8_Init) refers to stm32f4xx_hal_tim.o(i.HAL_TIM_PWM_ConfigChannel) for HAL_TIM_PWM_ConfigChannel
    main.o(i.MX_TIM8_Init) refers to stm32f4xx_hal_tim_ex.o(i.HAL_TIMEx_ConfigBreakDeadTime) for HAL_TIMEx_ConfigBreakDeadTime
    main.o(i.MX_TIM8_Init) refers to stm32f4xx_hal_msp.o(i.HAL_TIM_MspPostInit) for HAL_TIM_MspPostInit
    main.o(i.MX_TIM8_Init) refers to stm32f4xx_hal_tim_ex.o(i.HAL_TIMEx_PWMN_Start) for HAL_TIMEx_PWMN_Start
    main.o(i.MX_TIM8_Init) refers to stm32f4xx_hal_tim.o(i.HAL_TIM_PWM_Start) for HAL_TIM_PWM_Start
    main.o(i.MX_TIM8_Init) refers to main.o(.bss) for htim8
    main.o(i.MX_TIM9_Init) refers to stm32f4xx_hal_tim.o(i.HAL_TIM_IC_Init) for HAL_TIM_IC_Init
    main.o(i.MX_TIM9_Init) refers to main.o(i.Error_Handler) for Error_Handler
    main.o(i.MX_TIM9_Init) refers to stm32f4xx_hal_tim.o(i.HAL_TIM_ConfigClockSource) for HAL_TIM_ConfigClockSource
    main.o(i.MX_TIM9_Init) refers to stm32f4xx_hal_tim_ex.o(i.HAL_TIMEx_MasterConfigSynchronization) for HAL_TIMEx_MasterConfigSynchronization
    main.o(i.MX_TIM9_Init) refers to stm32f4xx_hal_tim.o(i.HAL_TIM_IC_ConfigChannel) for HAL_TIM_IC_ConfigChannel
    main.o(i.MX_TIM9_Init) refers to main.o(.bss) for htim9
    main.o(i.Sys_Time) refers to main.o(.data) for SysCLC
    main.o(i.SystemClock_Config) refers to memseta.o(.text) for __aeabi_memclr4
    main.o(i.SystemClock_Config) refers to stm32f4xx_hal_rcc.o(i.HAL_RCC_OscConfig) for HAL_RCC_OscConfig
    main.o(i.SystemClock_Config) refers to main.o(i.Error_Handler) for Error_Handler
    main.o(i.SystemClock_Config) refers to stm32f4xx_hal_rcc.o(i.HAL_RCC_ClockConfig) for HAL_RCC_ClockConfig
    main.o(i.SystemClock_Config) refers to stm32f4xx_hal_rcc.o(i.HAL_RCC_GetHCLKFreq) for HAL_RCC_GetHCLKFreq
    main.o(i.SystemClock_Config) refers to stm32f4xx_hal_cortex.o(i.HAL_SYSTICK_Config) for HAL_SYSTICK_Config
    main.o(i.SystemClock_Config) refers to stm32f4xx_hal_cortex.o(i.HAL_SYSTICK_CLKSourceConfig) for HAL_SYSTICK_CLKSourceConfig
    main.o(i.SystemClock_Config) refers to stm32f4xx_hal_cortex.o(i.HAL_NVIC_SetPriority) for HAL_NVIC_SetPriority
    main.o(i.fgetc) refers to stm32f4xx_hal_uart.o(i.HAL_UART_Receive) for HAL_UART_Receive
    main.o(i.fgetc) refers to main.o(.bss) for huart3
    main.o(i.fputc) refers to stm32f4xx_hal_uart.o(i.HAL_UART_Transmit) for HAL_UART_Transmit
    main.o(i.fputc) refers to main.o(.bss) for huart3
    main.o(i.main) refers to stm32f4xx_hal.o(i.HAL_Init) for HAL_Init
    main.o(i.main) refers to main.o(i.SystemClock_Config) for SystemClock_Config
    main.o(i.main) refers to main.o(i.MX_GPIO_Init) for MX_GPIO_Init
    main.o(i.main) refers to main.o(i.MX_DMA_Init) for MX_DMA_Init
    main.o(i.main) refers to main.o(i.MX_ADC1_Init) for MX_ADC1_Init
    main.o(i.main) refers to main.o(i.MX_TIM1_Init) for MX_TIM1_Init
    main.o(i.main) refers to main.o(i.MX_TIM2_Init) for MX_TIM2_Init
    main.o(i.main) refers to main.o(i.MX_TIM3_Init) for MX_TIM3_Init
    main.o(i.main) refers to main.o(i.MX_TIM4_Init) for MX_TIM4_Init
    main.o(i.main) refers to main.o(i.MX_TIM5_Init) for MX_TIM5_Init
    main.o(i.main) refers to canopen_timer.o(i.TIM6_Init) for TIM6_Init
    main.o(i.main) refers to main.o(i.MX_TIM7_Init) for MX_TIM7_Init
    main.o(i.main) refers to main.o(i.MX_TIM8_Init) for MX_TIM8_Init
    main.o(i.main) refers to main.o(i.MX_TIM9_Init) for MX_TIM9_Init
    main.o(i.main) refers to main.o(i.MX_TIM10_Init) for MX_TIM10_Init
    main.o(i.main) refers to main.o(i.MX_TIM11_Init) for MX_TIM11_Init
    main.o(i.main) refers to main.o(i.MX_TIM12_Init) for MX_TIM12_Init
    main.o(i.main) refers to agreement.o(i.MX_USART3_UART_Init) for MX_USART3_UART_Init
    main.o(i.main) refers to bsp_iwdg.o(i.MX_IWDG_Init) for MX_IWDG_Init
    main.o(i.main) refers to main.o(i.MX_NVIC_Init) for MX_NVIC_Init
    main.o(i.main) refers to stm32f4xx_hal_adc.o(i.HAL_ADC_Start_DMA) for HAL_ADC_Start_DMA
    main.o(i.main) refers to function.o(i.Init_Drive_Para) for Init_Drive_Para
    main.o(i.main) refers to function.o(i.Program_Version_Init) for Program_Version_Init
    main.o(i.main) refers to function.o(i.HardVersion_Init) for HardVersion_Init
    main.o(i.main) refers to flash.o(i.Flash_Read) for Flash_Read
    main.o(i.main) refers to function.o(i.Hardware_flowCheck) for Hardware_flowCheck
    main.o(i.main) refers to stm32f4xx_hal_tim.o(i.HAL_TIM_Base_Start_IT) for HAL_TIM_Base_Start_IT
    main.o(i.main) refers to stm32f4xx_hal_tim.o(i.HAL_TIM_PWM_Start) for HAL_TIM_PWM_Start
    main.o(i.main) refers to stm32f4xx_hal.o(i.HAL_Delay) for HAL_Delay
    main.o(i.main) refers to stm32f4xx_hal_cortex.o(i.HAL_NVIC_SetPriority) for HAL_NVIC_SetPriority
    main.o(i.main) refers to stm32f4xx_hal_cortex.o(i.HAL_NVIC_EnableIRQ) for HAL_NVIC_EnableIRQ
    main.o(i.main) refers to stm32f4xx_hal_tim.o(i.HAL_TIM_OC_Start_IT) for HAL_TIM_OC_Start_IT
    main.o(i.main) refers to canopen_od.o(i.CANopen_Parameter_Init) for CANopen_Parameter_Init
    main.o(i.main) refers to stm32f4xx_hal_can.o(i.HAL_CAN_Receive_IT) for HAL_CAN_Receive_IT
    main.o(i.main) refers to stm32f4xx_hal_uart.o(i.HAL_UART_Receive_IT) for HAL_UART_Receive_IT
    main.o(i.main) refers to stm32f4xx_hal_tim.o(i.HAL_TIM_IC_Start_IT) for HAL_TIM_IC_Start_IT
    main.o(i.main) refers to stm32f4xx_hal.o(i.HAL_GetTick) for HAL_GetTick
    main.o(i.main) refers to canopen_pdo.o(i.sendPDOevent) for sendPDOevent
    main.o(i.main) refers to main.o(i.Sys_Time) for Sys_Time
    main.o(i.main) refers to main.o(i.Labview_uart) for Labview_uart
    main.o(i.main) refers to bsp_bdcmotor.o(i.Suction_motor_errhandle) for Suction_motor_errhandle
    main.o(i.main) refers to function.o(i.Motor_Fault_Clear) for Motor_Fault_Clear
    main.o(i.main) refers to function.o(i.MC_SetFault) for MC_SetFault
    main.o(i.main) refers to agreement.o(i.Flash_WriteCheck) for Flash_WriteCheck
    main.o(i.main) refers to main.o(.bss) for huart3
    main.o(i.main) refers to canopen_od.o(.data) for CANopen_Drive
    main.o(i.main) refers to main.o(.data) for Programcount
    main.o(i.main) refers to canopen_od.o(.bss) for CanLoadRate
    main.o(i.main) refers to bsp_bdcmotor.o(.bss) for MotorControl
    main.o(i.main) refers to function.o(.data) for wGlobal_Flags
    main.o(i.main) refers to stm32f4xx_hal.o(.data) for uwTick
    main.o(i.main) refers to agreement.o(.data) for Flash_Writesign
    stm32f4xx_it.o(i.ADC_IRQHandler) refers to stm32f4xx_hal_adc.o(i.HAL_ADC_IRQHandler) for HAL_ADC_IRQHandler
    stm32f4xx_it.o(i.ADC_IRQHandler) refers to main.o(.bss) for hadc1
    stm32f4xx_it.o(i.CAN2_RX0_IRQHandler) refers to stm32f4xx_hal_can.o(i.HAL_CAN_IRQHandler) for HAL_CAN_IRQHandler
    stm32f4xx_it.o(i.CAN2_RX0_IRQHandler) refers to main.o(.bss) for hcan2
    stm32f4xx_it.o(i.DMA2_Stream0_IRQHandler) refers to stm32f4xx_hal_dma.o(i.HAL_DMA_IRQHandler) for HAL_DMA_IRQHandler
    stm32f4xx_it.o(i.DMA2_Stream0_IRQHandler) refers to main.o(.bss) for hdma_adc1
    stm32f4xx_it.o(i.EXTI0_IRQHandler) refers to stm32f4xx_hal_gpio.o(i.HAL_GPIO_EXTI_IRQHandler) for HAL_GPIO_EXTI_IRQHandler
    stm32f4xx_it.o(i.EXTI15_10_IRQHandler) refers to stm32f4xx_hal_gpio.o(i.HAL_GPIO_EXTI_IRQHandler) for HAL_GPIO_EXTI_IRQHandler
    stm32f4xx_it.o(i.EXTI1_IRQHandler) refers to stm32f4xx_hal_gpio.o(i.HAL_GPIO_EXTI_IRQHandler) for HAL_GPIO_EXTI_IRQHandler
    stm32f4xx_it.o(i.EXTI2_IRQHandler) refers to stm32f4xx_hal_gpio.o(i.HAL_GPIO_EXTI_IRQHandler) for HAL_GPIO_EXTI_IRQHandler
    stm32f4xx_it.o(i.EXTI3_IRQHandler) refers to stm32f4xx_hal_gpio.o(i.HAL_GPIO_EXTI_IRQHandler) for HAL_GPIO_EXTI_IRQHandler
    stm32f4xx_it.o(i.EXTI4_IRQHandler) refers to stm32f4xx_hal_gpio.o(i.HAL_GPIO_EXTI_IRQHandler) for HAL_GPIO_EXTI_IRQHandler
    stm32f4xx_it.o(i.EXTI9_5_IRQHandler) refers to stm32f4xx_hal_gpio.o(i.HAL_GPIO_EXTI_IRQHandler) for HAL_GPIO_EXTI_IRQHandler
    stm32f4xx_it.o(i.HAL_GPIO_EXTI_Callback) refers to function.o(i.BLDC5_Phase_Check) for BLDC5_Phase_Check
    stm32f4xx_it.o(i.HAL_GPIO_EXTI_Callback) refers to function.o(i.MC_SetFault) for MC_SetFault
    stm32f4xx_it.o(i.HAL_GPIO_EXTI_Callback) refers to stm32f4xx_hal_gpio.o(i.HAL_GPIO_TogglePin) for HAL_GPIO_TogglePin
    stm32f4xx_it.o(i.HAL_GPIO_EXTI_Callback) refers to bsp_bdcmotor.o(i.BLDC1_PhaseChange) for BLDC1_PhaseChange
    stm32f4xx_it.o(i.HAL_GPIO_EXTI_Callback) refers to bsp_bdcmotor.o(i.HALL_GetPhase2) for HALL_GetPhase2
    stm32f4xx_it.o(i.HAL_GPIO_EXTI_Callback) refers to function.o(i.BLDC6_Phase_Check) for BLDC6_Phase_Check
    stm32f4xx_it.o(i.HAL_GPIO_EXTI_Callback) refers to bsp_bdcmotor.o(.bss) for MotorControl
    stm32f4xx_it.o(i.HAL_GPIO_EXTI_Callback) refers to stm32f4xx_it.o(.data) for Hall_Dir
    stm32f4xx_it.o(i.HAL_GPIO_EXTI_Callback) refers to stm32f4xx_it.o(.constdata) for Dir_tab
    stm32f4xx_it.o(i.HAL_GPIO_EXTI_Callback) refers to main.o(.data) for MotorState
    stm32f4xx_it.o(i.HAL_GPIO_EXTI_Callback) refers to main.o(.bss) for htim5
    stm32f4xx_it.o(i.HAL_GPIO_EXTI_Callback) refers to bsp_bdcmotor.o(i.BLDC2_PhaseChange) for BLDC2_PhaseChange
    stm32f4xx_it.o(i.HAL_GPIO_EXTI_Callback) refers to stm32f4xx_hal_gpio.o(i.HAL_GPIO_WritePin) for HAL_GPIO_WritePin
    stm32f4xx_it.o(i.SysTick_Handler) refers to stm32f4xx_hal.o(i.HAL_IncTick) for HAL_IncTick
    stm32f4xx_it.o(i.SysTick_Handler) refers to stm32f4xx_hal_cortex.o(i.HAL_SYSTICK_IRQHandler) for HAL_SYSTICK_IRQHandler
    stm32f4xx_it.o(i.TIM1_BRK_TIM9_IRQHandler) refers to stm32f4xx_hal_tim.o(i.HAL_TIM_IRQHandler) for HAL_TIM_IRQHandler
    stm32f4xx_it.o(i.TIM1_BRK_TIM9_IRQHandler) refers to main.o(.bss) for htim1
    stm32f4xx_it.o(i.TIM1_UP_TIM10_IRQHandler) refers to stm32f4xx_hal_tim.o(i.HAL_TIM_IRQHandler) for HAL_TIM_IRQHandler
    stm32f4xx_it.o(i.TIM1_UP_TIM10_IRQHandler) refers to main.o(.bss) for htim1
    stm32f4xx_it.o(i.TIM5_IRQHandler) refers to stm32f4xx_hal_tim.o(i.HAL_TIM_IRQHandler) for HAL_TIM_IRQHandler
    stm32f4xx_it.o(i.TIM5_IRQHandler) refers to main.o(.bss) for htim5
    stm32f4xx_it.o(i.TIM7_IRQHandler) refers to stm32f4xx_hal_tim.o(i.HAL_TIM_IRQHandler) for HAL_TIM_IRQHandler
    stm32f4xx_it.o(i.TIM7_IRQHandler) refers to main.o(.bss) for htim7
    stm32f4xx_it.o(i.TIM8_BRK_TIM12_IRQHandler) refers to stm32f4xx_hal_tim.o(i.HAL_TIM_IRQHandler) for HAL_TIM_IRQHandler
    stm32f4xx_it.o(i.TIM8_BRK_TIM12_IRQHandler) refers to main.o(.bss) for htim12
    stm32f4xx_it.o(i.USART3_IRQHandler) refers to stm32f4xx_hal_uart.o(i.HAL_UART_IRQHandler) for HAL_UART_IRQHandler
    stm32f4xx_it.o(i.USART3_IRQHandler) refers to main.o(.bss) for huart3
    stm32f4xx_it.o(i.USART3_IRQHandler) refers to stm32f4xx_it.o(.data) for test0
    stm32f4xx_hal_msp.o(i.HAL_ADC_MspDeInit) refers to stm32f4xx_hal_gpio.o(i.HAL_GPIO_DeInit) for HAL_GPIO_DeInit
    stm32f4xx_hal_msp.o(i.HAL_ADC_MspDeInit) refers to stm32f4xx_hal_dma.o(i.HAL_DMA_DeInit) for HAL_DMA_DeInit
    stm32f4xx_hal_msp.o(i.HAL_ADC_MspInit) refers to memseta.o(.text) for __aeabi_memclr4
    stm32f4xx_hal_msp.o(i.HAL_ADC_MspInit) refers to stm32f4xx_hal_gpio.o(i.HAL_GPIO_Init) for HAL_GPIO_Init
    stm32f4xx_hal_msp.o(i.HAL_ADC_MspInit) refers to stm32f4xx_hal_dma.o(i.HAL_DMA_Init) for HAL_DMA_Init
    stm32f4xx_hal_msp.o(i.HAL_ADC_MspInit) refers to main.o(i.Error_Handler) for Error_Handler
    stm32f4xx_hal_msp.o(i.HAL_ADC_MspInit) refers to main.o(.bss) for hdma_adc1
    stm32f4xx_hal_msp.o(i.HAL_CAN_MspDeInit) refers to stm32f4xx_hal_gpio.o(i.HAL_GPIO_DeInit) for HAL_GPIO_DeInit
    stm32f4xx_hal_msp.o(i.HAL_CAN_MspDeInit) refers to stm32f4xx_hal_cortex.o(i.HAL_NVIC_DisableIRQ) for HAL_NVIC_DisableIRQ
    stm32f4xx_hal_msp.o(i.HAL_CAN_MspInit) refers to memseta.o(.text) for __aeabi_memclr4
    stm32f4xx_hal_msp.o(i.HAL_CAN_MspInit) refers to stm32f4xx_hal_gpio.o(i.HAL_GPIO_Init) for HAL_GPIO_Init
    stm32f4xx_hal_msp.o(i.HAL_CAN_MspInit) refers to main.o(.bss) for hcan2
    stm32f4xx_hal_msp.o(i.HAL_CAN_MspInit) refers to canopen_od.o(.data) for CANopen_Drive
    stm32f4xx_hal_msp.o(i.HAL_MspInit) refers to stm32f4xx_hal_cortex.o(i.HAL_NVIC_SetPriorityGrouping) for HAL_NVIC_SetPriorityGrouping
    stm32f4xx_hal_msp.o(i.HAL_TIM_Base_MspDeInit) refers to stm32f4xx_hal_gpio.o(i.HAL_GPIO_DeInit) for HAL_GPIO_DeInit
    stm32f4xx_hal_msp.o(i.HAL_TIM_Base_MspDeInit) refers to stm32f4xx_hal_cortex.o(i.HAL_NVIC_DisableIRQ) for HAL_NVIC_DisableIRQ
    stm32f4xx_hal_msp.o(i.HAL_TIM_Base_MspInit) refers to memseta.o(.text) for __aeabi_memclr4
    stm32f4xx_hal_msp.o(i.HAL_TIM_Base_MspInit) refers to stm32f4xx_hal_gpio.o(i.HAL_GPIO_Init) for HAL_GPIO_Init
    stm32f4xx_hal_msp.o(i.HAL_TIM_Base_MspInit) refers to stm32f4xx_hal_cortex.o(i.HAL_NVIC_SetPriority) for HAL_NVIC_SetPriority
    stm32f4xx_hal_msp.o(i.HAL_TIM_Base_MspInit) refers to stm32f4xx_hal_cortex.o(i.HAL_NVIC_EnableIRQ) for HAL_NVIC_EnableIRQ
    stm32f4xx_hal_msp.o(i.HAL_TIM_IC_MspDeInit) refers to stm32f4xx_hal_gpio.o(i.HAL_GPIO_DeInit) for HAL_GPIO_DeInit
    stm32f4xx_hal_msp.o(i.HAL_TIM_IC_MspInit) refers to memseta.o(.text) for __aeabi_memclr4
    stm32f4xx_hal_msp.o(i.HAL_TIM_IC_MspInit) refers to stm32f4xx_hal_gpio.o(i.HAL_GPIO_Init) for HAL_GPIO_Init
    stm32f4xx_hal_msp.o(i.HAL_TIM_IC_MspInit) refers to stm32f4xx_hal_cortex.o(i.HAL_NVIC_SetPriority) for HAL_NVIC_SetPriority
    stm32f4xx_hal_msp.o(i.HAL_TIM_IC_MspInit) refers to stm32f4xx_hal_cortex.o(i.HAL_NVIC_EnableIRQ) for HAL_NVIC_EnableIRQ
    stm32f4xx_hal_msp.o(i.HAL_TIM_MspPostInit) refers to memseta.o(.text) for __aeabi_memclr4
    stm32f4xx_hal_msp.o(i.HAL_TIM_MspPostInit) refers to stm32f4xx_hal_gpio.o(i.HAL_GPIO_Init) for HAL_GPIO_Init
    stm32f4xx_hal_msp.o(i.HAL_UART_MspDeInit) refers to stm32f4xx_hal_gpio.o(i.HAL_GPIO_DeInit) for HAL_GPIO_DeInit
    stm32f4xx_hal_msp.o(i.HAL_UART_MspDeInit) refers to stm32f4xx_hal_cortex.o(i.HAL_NVIC_DisableIRQ) for HAL_NVIC_DisableIRQ
    stm32f4xx_hal_msp.o(i.HAL_UART_MspInit) refers to memseta.o(.text) for __aeabi_memclr4
    stm32f4xx_hal_msp.o(i.HAL_UART_MspInit) refers to stm32f4xx_hal_gpio.o(i.HAL_GPIO_Init) for HAL_GPIO_Init
    stm32f4xx_hal_msp.o(i.HAL_UART_MspInit) refers to stm32f4xx_hal_cortex.o(i.HAL_NVIC_SetPriority) for HAL_NVIC_SetPriority
    stm32f4xx_hal_msp.o(i.HAL_UART_MspInit) refers to stm32f4xx_hal_cortex.o(i.HAL_NVIC_EnableIRQ) for HAL_NVIC_EnableIRQ
    stm32f4xx_hal_adc.o(i.HAL_ADC_ConfigChannel) refers to system_stm32f4xx.o(.data) for SystemCoreClock
    stm32f4xx_hal_adc.o(i.HAL_ADC_DeInit) refers to stm32f4xx_hal_msp.o(i.HAL_ADC_MspDeInit) for HAL_ADC_MspDeInit
    stm32f4xx_hal_adc.o(i.HAL_ADC_Init) refers to stm32f4xx_hal_adc.o(i.ADC_Init) for ADC_Init
    stm32f4xx_hal_adc.o(i.HAL_ADC_Init) refers to main.o(i.HAL_ADC_ConvCpltCallback) for HAL_ADC_ConvCpltCallback
    stm32f4xx_hal_adc.o(i.HAL_ADC_Init) refers to stm32f4xx_hal_adc.o(i.HAL_ADC_ConvHalfCpltCallback) for HAL_ADC_ConvHalfCpltCallback
    stm32f4xx_hal_adc.o(i.HAL_ADC_Init) refers to bsp_iwdg.o(i.HAL_ADC_LevelOutOfWindowCallback) for HAL_ADC_LevelOutOfWindowCallback
    stm32f4xx_hal_adc.o(i.HAL_ADC_Init) refers to stm32f4xx_hal_adc.o(i.HAL_ADC_ErrorCallback) for HAL_ADC_ErrorCallback
    stm32f4xx_hal_adc.o(i.HAL_ADC_Init) refers to stm32f4xx_hal_adc_ex.o(i.HAL_ADCEx_InjectedConvCpltCallback) for HAL_ADCEx_InjectedConvCpltCallback
    stm32f4xx_hal_adc.o(i.HAL_ADC_Init) refers to stm32f4xx_hal_msp.o(i.HAL_ADC_MspInit) for HAL_ADC_MspInit
    stm32f4xx_hal_adc.o(i.HAL_ADC_PollForConversion) refers to stm32f4xx_hal.o(i.HAL_GetTick) for HAL_GetTick
    stm32f4xx_hal_adc.o(i.HAL_ADC_PollForEvent) refers to stm32f4xx_hal.o(i.HAL_GetTick) for HAL_GetTick
    stm32f4xx_hal_adc.o(i.HAL_ADC_Start) refers to system_stm32f4xx.o(.data) for SystemCoreClock
    stm32f4xx_hal_adc.o(i.HAL_ADC_Start_DMA) refers to stm32f4xx_hal_dma.o(i.HAL_DMA_Start_IT) for HAL_DMA_Start_IT
    stm32f4xx_hal_adc.o(i.HAL_ADC_Start_DMA) refers to system_stm32f4xx.o(.data) for SystemCoreClock
    stm32f4xx_hal_adc.o(i.HAL_ADC_Start_DMA) refers to stm32f4xx_hal_adc.o(i.ADC_DMAConvCplt) for ADC_DMAConvCplt
    stm32f4xx_hal_adc.o(i.HAL_ADC_Start_DMA) refers to stm32f4xx_hal_adc.o(i.ADC_DMAHalfConvCplt) for ADC_DMAHalfConvCplt
    stm32f4xx_hal_adc.o(i.HAL_ADC_Start_DMA) refers to stm32f4xx_hal_adc.o(i.ADC_DMAError) for ADC_DMAError
    stm32f4xx_hal_adc.o(i.HAL_ADC_Start_IT) refers to system_stm32f4xx.o(.data) for SystemCoreClock
    stm32f4xx_hal_adc.o(i.HAL_ADC_Stop_DMA) refers to stm32f4xx_hal_dma.o(i.HAL_DMA_Abort) for HAL_DMA_Abort
    stm32f4xx_hal_adc.o(i.HAL_ADC_UnRegisterCallback) refers to main.o(i.HAL_ADC_ConvCpltCallback) for HAL_ADC_ConvCpltCallback
    stm32f4xx_hal_adc.o(i.HAL_ADC_UnRegisterCallback) refers to stm32f4xx_hal_adc.o(i.HAL_ADC_ConvHalfCpltCallback) for HAL_ADC_ConvHalfCpltCallback
    stm32f4xx_hal_adc.o(i.HAL_ADC_UnRegisterCallback) refers to bsp_iwdg.o(i.HAL_ADC_LevelOutOfWindowCallback) for HAL_ADC_LevelOutOfWindowCallback
    stm32f4xx_hal_adc.o(i.HAL_ADC_UnRegisterCallback) refers to stm32f4xx_hal_adc.o(i.HAL_ADC_ErrorCallback) for HAL_ADC_ErrorCallback
    stm32f4xx_hal_adc.o(i.HAL_ADC_UnRegisterCallback) refers to stm32f4xx_hal_adc_ex.o(i.HAL_ADCEx_InjectedConvCpltCallback) for HAL_ADCEx_InjectedConvCpltCallback
    stm32f4xx_hal_adc.o(i.HAL_ADC_UnRegisterCallback) refers to stm32f4xx_hal_msp.o(i.HAL_ADC_MspInit) for HAL_ADC_MspInit
    stm32f4xx_hal_adc.o(i.HAL_ADC_UnRegisterCallback) refers to stm32f4xx_hal_msp.o(i.HAL_ADC_MspDeInit) for HAL_ADC_MspDeInit
    stm32f4xx_hal_adc_ex.o(i.ADC_MultiModeDMAConvCplt) refers to main.o(i.HAL_ADC_ConvCpltCallback) for HAL_ADC_ConvCpltCallback
    stm32f4xx_hal_adc_ex.o(i.ADC_MultiModeDMAError) refers to stm32f4xx_hal_adc.o(i.HAL_ADC_ErrorCallback) for HAL_ADC_ErrorCallback
    stm32f4xx_hal_adc_ex.o(i.ADC_MultiModeDMAHalfConvCplt) refers to stm32f4xx_hal_adc.o(i.HAL_ADC_ConvHalfCpltCallback) for HAL_ADC_ConvHalfCpltCallback
    stm32f4xx_hal_adc_ex.o(i.HAL_ADCEx_InjectedPollForConversion) refers to stm32f4xx_hal.o(i.HAL_GetTick) for HAL_GetTick
    stm32f4xx_hal_adc_ex.o(i.HAL_ADCEx_InjectedStart) refers to system_stm32f4xx.o(.data) for SystemCoreClock
    stm32f4xx_hal_adc_ex.o(i.HAL_ADCEx_InjectedStart_IT) refers to system_stm32f4xx.o(.data) for SystemCoreClock
    stm32f4xx_hal_adc_ex.o(i.HAL_ADCEx_MultiModeStart_DMA) refers to stm32f4xx_hal_dma.o(i.HAL_DMA_Start_IT) for HAL_DMA_Start_IT
    stm32f4xx_hal_adc_ex.o(i.HAL_ADCEx_MultiModeStart_DMA) refers to system_stm32f4xx.o(.data) for SystemCoreClock
    stm32f4xx_hal_adc_ex.o(i.HAL_ADCEx_MultiModeStart_DMA) refers to stm32f4xx_hal_adc_ex.o(i.ADC_MultiModeDMAConvCplt) for ADC_MultiModeDMAConvCplt
    stm32f4xx_hal_adc_ex.o(i.HAL_ADCEx_MultiModeStart_DMA) refers to stm32f4xx_hal_adc_ex.o(i.ADC_MultiModeDMAHalfConvCplt) for ADC_MultiModeDMAHalfConvCplt
    stm32f4xx_hal_adc_ex.o(i.HAL_ADCEx_MultiModeStart_DMA) refers to stm32f4xx_hal_adc_ex.o(i.ADC_MultiModeDMAError) for ADC_MultiModeDMAError
    stm32f4xx_hal_adc_ex.o(i.HAL_ADCEx_MultiModeStop_DMA) refers to stm32f4xx_hal_dma.o(i.HAL_DMA_Abort) for HAL_DMA_Abort
    stm32f4xx_hal_rcc.o(i.HAL_RCC_ClockConfig) refers to stm32f4xx_hal.o(i.HAL_GetTick) for HAL_GetTick
    stm32f4xx_hal_rcc.o(i.HAL_RCC_ClockConfig) refers to stm32f4xx_hal_rcc.o(i.HAL_RCC_GetSysClockFreq) for HAL_RCC_GetSysClockFreq
    stm32f4xx_hal_rcc.o(i.HAL_RCC_ClockConfig) refers to stm32f4xx_hal.o(i.HAL_InitTick) for HAL_InitTick
    stm32f4xx_hal_rcc.o(i.HAL_RCC_ClockConfig) refers to system_stm32f4xx.o(.constdata) for AHBPrescTable
    stm32f4xx_hal_rcc.o(i.HAL_RCC_ClockConfig) refers to system_stm32f4xx.o(.data) for SystemCoreClock
    stm32f4xx_hal_rcc.o(i.HAL_RCC_ClockConfig) refers to stm32f4xx_hal.o(.data) for uwTickPrio
    stm32f4xx_hal_rcc.o(i.HAL_RCC_GetHCLKFreq) refers to system_stm32f4xx.o(.data) for SystemCoreClock
    stm32f4xx_hal_rcc.o(i.HAL_RCC_GetPCLK1Freq) refers to stm32f4xx_hal_rcc.o(i.HAL_RCC_GetHCLKFreq) for HAL_RCC_GetHCLKFreq
    stm32f4xx_hal_rcc.o(i.HAL_RCC_GetPCLK1Freq) refers to system_stm32f4xx.o(.constdata) for APBPrescTable
    stm32f4xx_hal_rcc.o(i.HAL_RCC_GetPCLK2Freq) refers to stm32f4xx_hal_rcc.o(i.HAL_RCC_GetHCLKFreq) for HAL_RCC_GetHCLKFreq
    stm32f4xx_hal_rcc.o(i.HAL_RCC_GetPCLK2Freq) refers to system_stm32f4xx.o(.constdata) for APBPrescTable
    stm32f4xx_hal_rcc.o(i.HAL_RCC_GetSysClockFreq) refers to uldiv.o(.text) for __aeabi_uldivmod
    stm32f4xx_hal_rcc.o(i.HAL_RCC_MCOConfig) refers to stm32f4xx_hal_gpio.o(i.HAL_GPIO_Init) for HAL_GPIO_Init
    stm32f4xx_hal_rcc.o(i.HAL_RCC_NMI_IRQHandler) refers to stm32f4xx_hal_rcc.o(i.HAL_RCC_CSSCallback) for HAL_RCC_CSSCallback
    stm32f4xx_hal_rcc.o(i.HAL_RCC_OscConfig) refers to stm32f4xx_hal.o(i.HAL_GetTick) for HAL_GetTick
    stm32f4xx_hal_rcc_ex.o(i.HAL_RCCEx_DisablePLLI2S) refers to stm32f4xx_hal.o(i.HAL_GetTick) for HAL_GetTick
    stm32f4xx_hal_rcc_ex.o(i.HAL_RCCEx_EnablePLLI2S) refers to stm32f4xx_hal.o(i.HAL_GetTick) for HAL_GetTick
    stm32f4xx_hal_rcc_ex.o(i.HAL_RCCEx_PeriphCLKConfig) refers to stm32f4xx_hal.o(i.HAL_GetTick) for HAL_GetTick
    stm32f4xx_hal_rcc_ex.o(i.HAL_RCC_DeInit) refers to stm32f4xx_hal.o(i.HAL_GetTick) for HAL_GetTick
    stm32f4xx_hal_rcc_ex.o(i.HAL_RCC_DeInit) refers to stm32f4xx_hal.o(i.HAL_InitTick) for HAL_InitTick
    stm32f4xx_hal_rcc_ex.o(i.HAL_RCC_DeInit) refers to system_stm32f4xx.o(.data) for SystemCoreClock
    stm32f4xx_hal_rcc_ex.o(i.HAL_RCC_DeInit) refers to stm32f4xx_hal.o(.data) for uwTickPrio
    stm32f4xx_hal_flash.o(i.FLASH_SetErrorCode) refers to stm32f4xx_hal_flash.o(.bss) for pFlash
    stm32f4xx_hal_flash.o(i.FLASH_WaitForLastOperation) refers to stm32f4xx_hal.o(i.HAL_GetTick) for HAL_GetTick
    stm32f4xx_hal_flash.o(i.FLASH_WaitForLastOperation) refers to stm32f4xx_hal_flash.o(i.FLASH_SetErrorCode) for FLASH_SetErrorCode
    stm32f4xx_hal_flash.o(i.FLASH_WaitForLastOperation) refers to stm32f4xx_hal_flash.o(.bss) for pFlash
    stm32f4xx_hal_flash.o(i.HAL_FLASH_GetError) refers to stm32f4xx_hal_flash.o(.bss) for pFlash
    stm32f4xx_hal_flash.o(i.HAL_FLASH_IRQHandler) refers to stm32f4xx_hal_flash.o(i.FLASH_SetErrorCode) for FLASH_SetErrorCode
    stm32f4xx_hal_flash.o(i.HAL_FLASH_IRQHandler) refers to stm32f4xx_hal_flash.o(i.HAL_FLASH_OperationErrorCallback) for HAL_FLASH_OperationErrorCallback
    stm32f4xx_hal_flash.o(i.HAL_FLASH_IRQHandler) refers to stm32f4xx_hal_flash.o(i.HAL_FLASH_EndOfOperationCallback) for HAL_FLASH_EndOfOperationCallback
    stm32f4xx_hal_flash.o(i.HAL_FLASH_IRQHandler) refers to stm32f4xx_hal_flash_ex.o(i.FLASH_Erase_Sector) for FLASH_Erase_Sector
    stm32f4xx_hal_flash.o(i.HAL_FLASH_IRQHandler) refers to stm32f4xx_hal_flash_ex.o(i.FLASH_FlushCaches) for FLASH_FlushCaches
    stm32f4xx_hal_flash.o(i.HAL_FLASH_IRQHandler) refers to stm32f4xx_hal_flash.o(.bss) for pFlash
    stm32f4xx_hal_flash.o(i.HAL_FLASH_OB_Launch) refers to stm32f4xx_hal_flash.o(i.FLASH_WaitForLastOperation) for FLASH_WaitForLastOperation
    stm32f4xx_hal_flash.o(i.HAL_FLASH_Program) refers to stm32f4xx_hal_flash.o(i.FLASH_WaitForLastOperation) for FLASH_WaitForLastOperation
    stm32f4xx_hal_flash.o(i.HAL_FLASH_Program) refers to stm32f4xx_hal_flash.o(i.FLASH_Program_Byte) for FLASH_Program_Byte
    stm32f4xx_hal_flash.o(i.HAL_FLASH_Program) refers to stm32f4xx_hal_flash.o(i.FLASH_Program_HalfWord) for FLASH_Program_HalfWord
    stm32f4xx_hal_flash.o(i.HAL_FLASH_Program) refers to stm32f4xx_hal_flash.o(i.FLASH_Program_Word) for FLASH_Program_Word
    stm32f4xx_hal_flash.o(i.HAL_FLASH_Program) refers to stm32f4xx_hal_flash.o(i.FLASH_Program_DoubleWord) for FLASH_Program_DoubleWord
    stm32f4xx_hal_flash.o(i.HAL_FLASH_Program) refers to stm32f4xx_hal_flash.o(.bss) for pFlash
    stm32f4xx_hal_flash.o(i.HAL_FLASH_Program_IT) refers to stm32f4xx_hal_flash.o(i.FLASH_Program_Byte) for FLASH_Program_Byte
    stm32f4xx_hal_flash.o(i.HAL_FLASH_Program_IT) refers to stm32f4xx_hal_flash.o(i.FLASH_Program_HalfWord) for FLASH_Program_HalfWord
    stm32f4xx_hal_flash.o(i.HAL_FLASH_Program_IT) refers to stm32f4xx_hal_flash.o(i.FLASH_Program_Word) for FLASH_Program_Word
    stm32f4xx_hal_flash.o(i.HAL_FLASH_Program_IT) refers to stm32f4xx_hal_flash.o(i.FLASH_Program_DoubleWord) for FLASH_Program_DoubleWord
    stm32f4xx_hal_flash.o(i.HAL_FLASH_Program_IT) refers to stm32f4xx_hal_flash.o(.bss) for pFlash
    stm32f4xx_hal_flash_ex.o(i.FLASH_OB_DisableWRP) refers to stm32f4xx_hal_flash.o(i.FLASH_WaitForLastOperation) for FLASH_WaitForLastOperation
    stm32f4xx_hal_flash_ex.o(i.FLASH_OB_EnableWRP) refers to stm32f4xx_hal_flash.o(i.FLASH_WaitForLastOperation) for FLASH_WaitForLastOperation
    stm32f4xx_hal_flash_ex.o(i.FLASH_OB_RDP_LevelConfig) refers to stm32f4xx_hal_flash.o(i.FLASH_WaitForLastOperation) for FLASH_WaitForLastOperation
    stm32f4xx_hal_flash_ex.o(i.FLASH_OB_UserConfig) refers to stm32f4xx_hal_flash.o(i.FLASH_WaitForLastOperation) for FLASH_WaitForLastOperation
    stm32f4xx_hal_flash_ex.o(i.HAL_FLASHEx_Erase) refers to stm32f4xx_hal_flash.o(i.FLASH_WaitForLastOperation) for FLASH_WaitForLastOperation
    stm32f4xx_hal_flash_ex.o(i.HAL_FLASHEx_Erase) refers to stm32f4xx_hal_flash_ex.o(i.FLASH_MassErase) for FLASH_MassErase
    stm32f4xx_hal_flash_ex.o(i.HAL_FLASHEx_Erase) refers to stm32f4xx_hal_flash_ex.o(i.FLASH_Erase_Sector) for FLASH_Erase_Sector
    stm32f4xx_hal_flash_ex.o(i.HAL_FLASHEx_Erase) refers to stm32f4xx_hal_flash_ex.o(i.FLASH_FlushCaches) for FLASH_FlushCaches
    stm32f4xx_hal_flash_ex.o(i.HAL_FLASHEx_Erase) refers to stm32f4xx_hal_flash.o(.bss) for pFlash
    stm32f4xx_hal_flash_ex.o(i.HAL_FLASHEx_Erase_IT) refers to stm32f4xx_hal_flash_ex.o(i.FLASH_MassErase) for FLASH_MassErase
    stm32f4xx_hal_flash_ex.o(i.HAL_FLASHEx_Erase_IT) refers to stm32f4xx_hal_flash_ex.o(i.FLASH_Erase_Sector) for FLASH_Erase_Sector
    stm32f4xx_hal_flash_ex.o(i.HAL_FLASHEx_Erase_IT) refers to stm32f4xx_hal_flash.o(.bss) for pFlash
    stm32f4xx_hal_flash_ex.o(i.HAL_FLASHEx_OBGetConfig) refers to stm32f4xx_hal_flash_ex.o(i.FLASH_OB_GetWRP) for FLASH_OB_GetWRP
    stm32f4xx_hal_flash_ex.o(i.HAL_FLASHEx_OBGetConfig) refers to stm32f4xx_hal_flash_ex.o(i.FLASH_OB_GetRDP) for FLASH_OB_GetRDP
    stm32f4xx_hal_flash_ex.o(i.HAL_FLASHEx_OBGetConfig) refers to stm32f4xx_hal_flash_ex.o(i.FLASH_OB_GetUser) for FLASH_OB_GetUser
    stm32f4xx_hal_flash_ex.o(i.HAL_FLASHEx_OBGetConfig) refers to stm32f4xx_hal_flash_ex.o(i.FLASH_OB_GetBOR) for FLASH_OB_GetBOR
    stm32f4xx_hal_flash_ex.o(i.HAL_FLASHEx_OBProgram) refers to stm32f4xx_hal_flash_ex.o(i.FLASH_OB_EnableWRP) for FLASH_OB_EnableWRP
    stm32f4xx_hal_flash_ex.o(i.HAL_FLASHEx_OBProgram) refers to stm32f4xx_hal_flash_ex.o(i.FLASH_OB_DisableWRP) for FLASH_OB_DisableWRP
    stm32f4xx_hal_flash_ex.o(i.HAL_FLASHEx_OBProgram) refers to stm32f4xx_hal_flash_ex.o(i.FLASH_OB_RDP_LevelConfig) for FLASH_OB_RDP_LevelConfig
    stm32f4xx_hal_flash_ex.o(i.HAL_FLASHEx_OBProgram) refers to stm32f4xx_hal_flash_ex.o(i.FLASH_OB_UserConfig) for FLASH_OB_UserConfig
    stm32f4xx_hal_flash_ex.o(i.HAL_FLASHEx_OBProgram) refers to stm32f4xx_hal_flash_ex.o(i.FLASH_OB_BOR_LevelConfig) for FLASH_OB_BOR_LevelConfig
    stm32f4xx_hal_flash_ex.o(i.HAL_FLASHEx_OBProgram) refers to stm32f4xx_hal_flash.o(.bss) for pFlash
    stm32f4xx_hal_gpio.o(i.HAL_GPIO_EXTI_IRQHandler) refers to stm32f4xx_it.o(i.HAL_GPIO_EXTI_Callback) for HAL_GPIO_EXTI_Callback
    stm32f4xx_hal_dma_ex.o(i.HAL_DMAEx_MultiBufferStart) refers to stm32f4xx_hal_dma_ex.o(i.DMA_MultiBufferSetConfig) for DMA_MultiBufferSetConfig
    stm32f4xx_hal_dma_ex.o(i.HAL_DMAEx_MultiBufferStart_IT) refers to stm32f4xx_hal_dma_ex.o(i.DMA_MultiBufferSetConfig) for DMA_MultiBufferSetConfig
    stm32f4xx_hal_dma.o(i.DMA_CalcBaseAndBitshift) refers to stm32f4xx_hal_dma.o(.constdata) for flagBitshiftOffset
    stm32f4xx_hal_dma.o(i.HAL_DMA_Abort) refers to stm32f4xx_hal.o(i.HAL_GetTick) for HAL_GetTick
    stm32f4xx_hal_dma.o(i.HAL_DMA_DeInit) refers to stm32f4xx_hal_dma.o(i.DMA_CalcBaseAndBitshift) for DMA_CalcBaseAndBitshift
    stm32f4xx_hal_dma.o(i.HAL_DMA_IRQHandler) refers to system_stm32f4xx.o(.data) for SystemCoreClock
    stm32f4xx_hal_dma.o(i.HAL_DMA_Init) refers to stm32f4xx_hal.o(i.HAL_GetTick) for HAL_GetTick
    stm32f4xx_hal_dma.o(i.HAL_DMA_Init) refers to stm32f4xx_hal_dma.o(i.DMA_CheckFifoParam) for DMA_CheckFifoParam
    stm32f4xx_hal_dma.o(i.HAL_DMA_Init) refers to stm32f4xx_hal_dma.o(i.DMA_CalcBaseAndBitshift) for DMA_CalcBaseAndBitshift
    stm32f4xx_hal_dma.o(i.HAL_DMA_PollForTransfer) refers to stm32f4xx_hal.o(i.HAL_GetTick) for HAL_GetTick
    stm32f4xx_hal_dma.o(i.HAL_DMA_PollForTransfer) refers to stm32f4xx_hal_dma.o(i.HAL_DMA_Abort) for HAL_DMA_Abort
    stm32f4xx_hal_dma.o(i.HAL_DMA_Start) refers to stm32f4xx_hal_dma.o(i.DMA_SetConfig) for DMA_SetConfig
    stm32f4xx_hal_dma.o(i.HAL_DMA_Start_IT) refers to stm32f4xx_hal_dma.o(i.DMA_SetConfig) for DMA_SetConfig
    stm32f4xx_hal_pwr.o(i.HAL_PWR_PVD_IRQHandler) refers to stm32f4xx_hal_pwr.o(i.HAL_PWR_PVDCallback) for HAL_PWR_PVDCallback
    stm32f4xx_hal_pwr_ex.o(i.HAL_PWREx_ControlVoltageScaling) refers to stm32f4xx_hal.o(i.HAL_GetTick) for HAL_GetTick
    stm32f4xx_hal_pwr_ex.o(i.HAL_PWREx_DisableBkUpReg) refers to stm32f4xx_hal.o(i.HAL_GetTick) for HAL_GetTick
    stm32f4xx_hal_pwr_ex.o(i.HAL_PWREx_EnableBkUpReg) refers to stm32f4xx_hal.o(i.HAL_GetTick) for HAL_GetTick
    stm32f4xx_hal_cortex.o(i.HAL_NVIC_GetPriorityGrouping) refers to stm32f4xx_hal_cortex.o(i.__NVIC_GetPriorityGrouping) for __NVIC_GetPriorityGrouping
    stm32f4xx_hal_cortex.o(i.HAL_NVIC_SetPriority) refers to stm32f4xx_hal_cortex.o(i.__NVIC_GetPriorityGrouping) for __NVIC_GetPriorityGrouping
    stm32f4xx_hal_cortex.o(i.HAL_NVIC_SetPriority) refers to stm32f4xx_hal_cortex.o(i.__NVIC_SetPriority) for __NVIC_SetPriority
    stm32f4xx_hal_cortex.o(i.HAL_SYSTICK_Config) refers to stm32f4xx_hal_cortex.o(i.__NVIC_SetPriority) for __NVIC_SetPriority
    stm32f4xx_hal_cortex.o(i.HAL_SYSTICK_IRQHandler) refers to main.o(i.HAL_SYSTICK_Callback) for HAL_SYSTICK_Callback
    stm32f4xx_hal.o(i.HAL_DeInit) refers to stm32f4xx_hal.o(i.HAL_MspDeInit) for HAL_MspDeInit
    stm32f4xx_hal.o(i.HAL_Delay) refers to stm32f4xx_hal.o(i.HAL_GetTick) for HAL_GetTick
    stm32f4xx_hal.o(i.HAL_Delay) refers to stm32f4xx_hal.o(.data) for uwTickFreq
    stm32f4xx_hal.o(i.HAL_GetTick) refers to stm32f4xx_hal.o(.data) for uwTick
    stm32f4xx_hal.o(i.HAL_GetTickFreq) refers to stm32f4xx_hal.o(.data) for uwTickFreq
    stm32f4xx_hal.o(i.HAL_GetTickPrio) refers to stm32f4xx_hal.o(.data) for uwTickPrio
    stm32f4xx_hal.o(i.HAL_IncTick) refers to stm32f4xx_hal.o(.data) for uwTick
    stm32f4xx_hal.o(i.HAL_Init) refers to stm32f4xx_hal_cortex.o(i.HAL_NVIC_SetPriorityGrouping) for HAL_NVIC_SetPriorityGrouping
    stm32f4xx_hal.o(i.HAL_Init) refers to stm32f4xx_hal.o(i.HAL_InitTick) for HAL_InitTick
    stm32f4xx_hal.o(i.HAL_Init) refers to stm32f4xx_hal_msp.o(i.HAL_MspInit) for HAL_MspInit
    stm32f4xx_hal.o(i.HAL_InitTick) refers to stm32f4xx_hal_cortex.o(i.HAL_SYSTICK_Config) for HAL_SYSTICK_Config
    stm32f4xx_hal.o(i.HAL_InitTick) refers to stm32f4xx_hal_cortex.o(i.HAL_NVIC_SetPriority) for HAL_NVIC_SetPriority
    stm32f4xx_hal.o(i.HAL_InitTick) refers to stm32f4xx_hal.o(.data) for uwTickFreq
    stm32f4xx_hal.o(i.HAL_InitTick) refers to system_stm32f4xx.o(.data) for SystemCoreClock
    stm32f4xx_hal.o(i.HAL_SetTickFreq) refers to stm32f4xx_hal.o(i.HAL_InitTick) for HAL_InitTick
    stm32f4xx_hal.o(i.HAL_SetTickFreq) refers to stm32f4xx_hal.o(.data) for uwTickFreq
    stm32f4xx_hal_can.o(i.CAN_Receive_IT) refers to main.o(i.HAL_CAN_RxCpltCallback) for HAL_CAN_RxCpltCallback
    stm32f4xx_hal_can.o(i.CAN_Transmit_IT) refers to stm32f4xx_hal_can.o(i.HAL_CAN_TxCpltCallback) for HAL_CAN_TxCpltCallback
    stm32f4xx_hal_can.o(i.HAL_CAN_DeInit) refers to stm32f4xx_hal_msp.o(i.HAL_CAN_MspDeInit) for HAL_CAN_MspDeInit
    stm32f4xx_hal_can.o(i.HAL_CAN_IRQHandler) refers to stm32f4xx_hal_can.o(i.CAN_Transmit_IT) for CAN_Transmit_IT
    stm32f4xx_hal_can.o(i.HAL_CAN_IRQHandler) refers to stm32f4xx_hal_can.o(i.CAN_Receive_IT) for CAN_Receive_IT
    stm32f4xx_hal_can.o(i.HAL_CAN_IRQHandler) refers to stm32f4xx_hal_can.o(i.HAL_CAN_ErrorCallback) for HAL_CAN_ErrorCallback
    stm32f4xx_hal_can.o(i.HAL_CAN_Init) refers to stm32f4xx_hal_msp.o(i.HAL_CAN_MspInit) for HAL_CAN_MspInit
    stm32f4xx_hal_can.o(i.HAL_CAN_Init) refers to stm32f4xx_hal.o(i.HAL_GetTick) for HAL_GetTick
    stm32f4xx_hal_can.o(i.HAL_CAN_Receive) refers to stm32f4xx_hal.o(i.HAL_GetTick) for HAL_GetTick
    stm32f4xx_hal_can.o(i.HAL_CAN_Sleep) refers to stm32f4xx_hal.o(i.HAL_GetTick) for HAL_GetTick
    stm32f4xx_hal_can.o(i.HAL_CAN_Transmit) refers to stm32f4xx_hal.o(i.HAL_GetTick) for HAL_GetTick
    stm32f4xx_hal_can.o(i.HAL_CAN_WakeUp) refers to stm32f4xx_hal.o(i.HAL_GetTick) for HAL_GetTick
    stm32f4xx_hal_tim.o(i.HAL_TIM_Base_DeInit) refers to stm32f4xx_hal_msp.o(i.HAL_TIM_Base_MspDeInit) for HAL_TIM_Base_MspDeInit
    stm32f4xx_hal_tim.o(i.HAL_TIM_Base_Init) refers to stm32f4xx_hal_msp.o(i.HAL_TIM_Base_MspInit) for HAL_TIM_Base_MspInit
    stm32f4xx_hal_tim.o(i.HAL_TIM_Base_Init) refers to stm32f4xx_hal_tim.o(i.TIM_Base_SetConfig) for TIM_Base_SetConfig
    stm32f4xx_hal_tim.o(i.HAL_TIM_Base_Start_DMA) refers to stm32f4xx_hal_dma.o(i.HAL_DMA_Start_IT) for HAL_DMA_Start_IT
    stm32f4xx_hal_tim.o(i.HAL_TIM_Base_Start_DMA) refers to stm32f4xx_hal_tim.o(i.TIM_DMAPeriodElapsedCplt) for TIM_DMAPeriodElapsedCplt
    stm32f4xx_hal_tim.o(i.HAL_TIM_Base_Start_DMA) refers to stm32f4xx_hal_tim.o(i.TIM_DMAPeriodElapsedHalfCplt) for TIM_DMAPeriodElapsedHalfCplt
    stm32f4xx_hal_tim.o(i.HAL_TIM_Base_Start_DMA) refers to stm32f4xx_hal_tim.o(i.TIM_DMAError) for TIM_DMAError
    stm32f4xx_hal_tim.o(i.HAL_TIM_Base_Stop_DMA) refers to stm32f4xx_hal_dma.o(i.HAL_DMA_Abort_IT) for HAL_DMA_Abort_IT
    stm32f4xx_hal_tim.o(i.HAL_TIM_ConfigClockSource) refers to stm32f4xx_hal_tim.o(i.TIM_ETR_SetConfig) for TIM_ETR_SetConfig
    stm32f4xx_hal_tim.o(i.HAL_TIM_ConfigClockSource) refers to stm32f4xx_hal_tim.o(i.TIM_TI1_ConfigInputStage) for TIM_TI1_ConfigInputStage
    stm32f4xx_hal_tim.o(i.HAL_TIM_ConfigClockSource) refers to stm32f4xx_hal_tim.o(i.TIM_ITRx_SetConfig) for TIM_ITRx_SetConfig
    stm32f4xx_hal_tim.o(i.HAL_TIM_ConfigClockSource) refers to stm32f4xx_hal_tim.o(i.TIM_TI2_ConfigInputStage) for TIM_TI2_ConfigInputStage
    stm32f4xx_hal_tim.o(i.HAL_TIM_ConfigOCrefClear) refers to stm32f4xx_hal_tim.o(i.TIM_ETR_SetConfig) for TIM_ETR_SetConfig
    stm32f4xx_hal_tim.o(i.HAL_TIM_DMABurst_ReadStart) refers to stm32f4xx_hal_dma.o(i.HAL_DMA_Start_IT) for HAL_DMA_Start_IT
    stm32f4xx_hal_tim.o(i.HAL_TIM_DMABurst_ReadStart) refers to stm32f4xx_hal_tim.o(i.TIM_DMAPeriodElapsedCplt) for TIM_DMAPeriodElapsedCplt
    stm32f4xx_hal_tim.o(i.HAL_TIM_DMABurst_ReadStart) refers to stm32f4xx_hal_tim.o(i.TIM_DMAPeriodElapsedHalfCplt) for TIM_DMAPeriodElapsedHalfCplt
    stm32f4xx_hal_tim.o(i.HAL_TIM_DMABurst_ReadStart) refers to stm32f4xx_hal_tim.o(i.TIM_DMAError) for TIM_DMAError
    stm32f4xx_hal_tim.o(i.HAL_TIM_DMABurst_ReadStart) refers to stm32f4xx_hal_tim.o(i.TIM_DMACaptureCplt) for TIM_DMACaptureCplt
    stm32f4xx_hal_tim.o(i.HAL_TIM_DMABurst_ReadStart) refers to stm32f4xx_hal_tim.o(i.TIM_DMACaptureHalfCplt) for TIM_DMACaptureHalfCplt
    stm32f4xx_hal_tim.o(i.HAL_TIM_DMABurst_ReadStart) refers to stm32f4xx_hal_tim_ex.o(i.TIMEx_DMACommutationCplt) for TIMEx_DMACommutationCplt
    stm32f4xx_hal_tim.o(i.HAL_TIM_DMABurst_ReadStart) refers to stm32f4xx_hal_tim_ex.o(i.TIMEx_DMACommutationHalfCplt) for TIMEx_DMACommutationHalfCplt
    stm32f4xx_hal_tim.o(i.HAL_TIM_DMABurst_ReadStart) refers to stm32f4xx_hal_tim.o(i.TIM_DMATriggerCplt) for TIM_DMATriggerCplt
    stm32f4xx_hal_tim.o(i.HAL_TIM_DMABurst_ReadStart) refers to stm32f4xx_hal_tim.o(i.TIM_DMATriggerHalfCplt) for TIM_DMATriggerHalfCplt
    stm32f4xx_hal_tim.o(i.HAL_TIM_DMABurst_ReadStop) refers to stm32f4xx_hal_dma.o(i.HAL_DMA_Abort_IT) for HAL_DMA_Abort_IT
    stm32f4xx_hal_tim.o(i.HAL_TIM_DMABurst_WriteStart) refers to stm32f4xx_hal_dma.o(i.HAL_DMA_Start_IT) for HAL_DMA_Start_IT
    stm32f4xx_hal_tim.o(i.HAL_TIM_DMABurst_WriteStart) refers to stm32f4xx_hal_tim.o(i.TIM_DMAPeriodElapsedCplt) for TIM_DMAPeriodElapsedCplt
    stm32f4xx_hal_tim.o(i.HAL_TIM_DMABurst_WriteStart) refers to stm32f4xx_hal_tim.o(i.TIM_DMAPeriodElapsedHalfCplt) for TIM_DMAPeriodElapsedHalfCplt
    stm32f4xx_hal_tim.o(i.HAL_TIM_DMABurst_WriteStart) refers to stm32f4xx_hal_tim.o(i.TIM_DMAError) for TIM_DMAError
    stm32f4xx_hal_tim.o(i.HAL_TIM_DMABurst_WriteStart) refers to stm32f4xx_hal_tim.o(i.TIM_DMADelayPulseCplt) for TIM_DMADelayPulseCplt
    stm32f4xx_hal_tim.o(i.HAL_TIM_DMABurst_WriteStart) refers to stm32f4xx_hal_tim.o(i.TIM_DMADelayPulseHalfCplt) for TIM_DMADelayPulseHalfCplt
    stm32f4xx_hal_tim.o(i.HAL_TIM_DMABurst_WriteStart) refers to stm32f4xx_hal_tim_ex.o(i.TIMEx_DMACommutationCplt) for TIMEx_DMACommutationCplt
    stm32f4xx_hal_tim.o(i.HAL_TIM_DMABurst_WriteStart) refers to stm32f4xx_hal_tim_ex.o(i.TIMEx_DMACommutationHalfCplt) for TIMEx_DMACommutationHalfCplt
    stm32f4xx_hal_tim.o(i.HAL_TIM_DMABurst_WriteStart) refers to stm32f4xx_hal_tim.o(i.TIM_DMATriggerCplt) for TIM_DMATriggerCplt
    stm32f4xx_hal_tim.o(i.HAL_TIM_DMABurst_WriteStart) refers to stm32f4xx_hal_tim.o(i.TIM_DMATriggerHalfCplt) for TIM_DMATriggerHalfCplt
    stm32f4xx_hal_tim.o(i.HAL_TIM_DMABurst_WriteStop) refers to stm32f4xx_hal_dma.o(i.HAL_DMA_Abort_IT) for HAL_DMA_Abort_IT
    stm32f4xx_hal_tim.o(i.HAL_TIM_Encoder_DeInit) refers to stm32f4xx_hal_tim.o(i.HAL_TIM_Encoder_MspDeInit) for HAL_TIM_Encoder_MspDeInit
    stm32f4xx_hal_tim.o(i.HAL_TIM_Encoder_Init) refers to stm32f4xx_hal_tim.o(i.HAL_TIM_Encoder_MspInit) for HAL_TIM_Encoder_MspInit
    stm32f4xx_hal_tim.o(i.HAL_TIM_Encoder_Init) refers to stm32f4xx_hal_tim.o(i.TIM_Base_SetConfig) for TIM_Base_SetConfig
    stm32f4xx_hal_tim.o(i.HAL_TIM_Encoder_Start) refers to stm32f4xx_hal_tim.o(i.TIM_CCxChannelCmd) for TIM_CCxChannelCmd
    stm32f4xx_hal_tim.o(i.HAL_TIM_Encoder_Start_DMA) refers to stm32f4xx_hal_dma.o(i.HAL_DMA_Start_IT) for HAL_DMA_Start_IT
    stm32f4xx_hal_tim.o(i.HAL_TIM_Encoder_Start_DMA) refers to stm32f4xx_hal_tim.o(i.TIM_CCxChannelCmd) for TIM_CCxChannelCmd
    stm32f4xx_hal_tim.o(i.HAL_TIM_Encoder_Start_DMA) refers to stm32f4xx_hal_tim.o(i.TIM_DMACaptureCplt) for TIM_DMACaptureCplt
    stm32f4xx_hal_tim.o(i.HAL_TIM_Encoder_Start_DMA) refers to stm32f4xx_hal_tim.o(i.TIM_DMACaptureHalfCplt) for TIM_DMACaptureHalfCplt
    stm32f4xx_hal_tim.o(i.HAL_TIM_Encoder_Start_DMA) refers to stm32f4xx_hal_tim.o(i.TIM_DMAError) for TIM_DMAError
    stm32f4xx_hal_tim.o(i.HAL_TIM_Encoder_Start_IT) refers to stm32f4xx_hal_tim.o(i.TIM_CCxChannelCmd) for TIM_CCxChannelCmd
    stm32f4xx_hal_tim.o(i.HAL_TIM_Encoder_Stop) refers to stm32f4xx_hal_tim.o(i.TIM_CCxChannelCmd) for TIM_CCxChannelCmd
    stm32f4xx_hal_tim.o(i.HAL_TIM_Encoder_Stop_DMA) refers to stm32f4xx_hal_tim.o(i.TIM_CCxChannelCmd) for TIM_CCxChannelCmd
    stm32f4xx_hal_tim.o(i.HAL_TIM_Encoder_Stop_DMA) refers to stm32f4xx_hal_dma.o(i.HAL_DMA_Abort_IT) for HAL_DMA_Abort_IT
    stm32f4xx_hal_tim.o(i.HAL_TIM_Encoder_Stop_IT) refers to stm32f4xx_hal_tim.o(i.TIM_CCxChannelCmd) for TIM_CCxChannelCmd
    stm32f4xx_hal_tim.o(i.HAL_TIM_IC_ConfigChannel) refers to stm32f4xx_hal_tim.o(i.TIM_TI1_SetConfig) for TIM_TI1_SetConfig
    stm32f4xx_hal_tim.o(i.HAL_TIM_IC_ConfigChannel) refers to stm32f4xx_hal_tim.o(i.TIM_TI2_SetConfig) for TIM_TI2_SetConfig
    stm32f4xx_hal_tim.o(i.HAL_TIM_IC_ConfigChannel) refers to stm32f4xx_hal_tim.o(i.TIM_TI3_SetConfig) for TIM_TI3_SetConfig
    stm32f4xx_hal_tim.o(i.HAL_TIM_IC_ConfigChannel) refers to stm32f4xx_hal_tim.o(i.TIM_TI4_SetConfig) for TIM_TI4_SetConfig
    stm32f4xx_hal_tim.o(i.HAL_TIM_IC_DeInit) refers to stm32f4xx_hal_msp.o(i.HAL_TIM_IC_MspDeInit) for HAL_TIM_IC_MspDeInit
    stm32f4xx_hal_tim.o(i.HAL_TIM_IC_Init) refers to stm32f4xx_hal_msp.o(i.HAL_TIM_IC_MspInit) for HAL_TIM_IC_MspInit
    stm32f4xx_hal_tim.o(i.HAL_TIM_IC_Init) refers to stm32f4xx_hal_tim.o(i.TIM_Base_SetConfig) for TIM_Base_SetConfig
    stm32f4xx_hal_tim.o(i.HAL_TIM_IC_Start) refers to stm32f4xx_hal_tim.o(i.TIM_CCxChannelCmd) for TIM_CCxChannelCmd
    stm32f4xx_hal_tim.o(i.HAL_TIM_IC_Start_DMA) refers to stm32f4xx_hal_dma.o(i.HAL_DMA_Start_IT) for HAL_DMA_Start_IT
    stm32f4xx_hal_tim.o(i.HAL_TIM_IC_Start_DMA) refers to stm32f4xx_hal_tim.o(i.TIM_CCxChannelCmd) for TIM_CCxChannelCmd
    stm32f4xx_hal_tim.o(i.HAL_TIM_IC_Start_DMA) refers to stm32f4xx_hal_tim.o(i.TIM_DMACaptureCplt) for TIM_DMACaptureCplt
    stm32f4xx_hal_tim.o(i.HAL_TIM_IC_Start_DMA) refers to stm32f4xx_hal_tim.o(i.TIM_DMACaptureHalfCplt) for TIM_DMACaptureHalfCplt
    stm32f4xx_hal_tim.o(i.HAL_TIM_IC_Start_DMA) refers to stm32f4xx_hal_tim.o(i.TIM_DMAError) for TIM_DMAError
    stm32f4xx_hal_tim.o(i.HAL_TIM_IC_Start_IT) refers to stm32f4xx_hal_tim.o(i.TIM_CCxChannelCmd) for TIM_CCxChannelCmd
    stm32f4xx_hal_tim.o(i.HAL_TIM_IC_Stop) refers to stm32f4xx_hal_tim.o(i.TIM_CCxChannelCmd) for TIM_CCxChannelCmd
    stm32f4xx_hal_tim.o(i.HAL_TIM_IC_Stop_DMA) refers to stm32f4xx_hal_dma.o(i.HAL_DMA_Abort_IT) for HAL_DMA_Abort_IT
    stm32f4xx_hal_tim.o(i.HAL_TIM_IC_Stop_DMA) refers to stm32f4xx_hal_tim.o(i.TIM_CCxChannelCmd) for TIM_CCxChannelCmd
    stm32f4xx_hal_tim.o(i.HAL_TIM_IC_Stop_IT) refers to stm32f4xx_hal_tim.o(i.TIM_CCxChannelCmd) for TIM_CCxChannelCmd
    stm32f4xx_hal_tim.o(i.HAL_TIM_IRQHandler) refers to main.o(i.HAL_TIM_IC_CaptureCallback) for HAL_TIM_IC_CaptureCallback
    stm32f4xx_hal_tim.o(i.HAL_TIM_IRQHandler) refers to main.o(i.HAL_TIM_OC_DelayElapsedCallback) for HAL_TIM_OC_DelayElapsedCallback
    stm32f4xx_hal_tim.o(i.HAL_TIM_IRQHandler) refers to stm32f4xx_hal_tim.o(i.HAL_TIM_PWM_PulseFinishedCallback) for HAL_TIM_PWM_PulseFinishedCallback
    stm32f4xx_hal_tim.o(i.HAL_TIM_IRQHandler) refers to main.o(i.HAL_TIM_PeriodElapsedCallback) for HAL_TIM_PeriodElapsedCallback
    stm32f4xx_hal_tim.o(i.HAL_TIM_IRQHandler) refers to main.o(i.HAL_TIMEx_BreakCallback) for HAL_TIMEx_BreakCallback
    stm32f4xx_hal_tim.o(i.HAL_TIM_IRQHandler) refers to stm32f4xx_hal_tim.o(i.HAL_TIM_TriggerCallback) for HAL_TIM_TriggerCallback
    stm32f4xx_hal_tim.o(i.HAL_TIM_IRQHandler) refers to stm32f4xx_hal_tim_ex.o(i.HAL_TIMEx_CommutCallback) for HAL_TIMEx_CommutCallback
    stm32f4xx_hal_tim.o(i.HAL_TIM_OC_ConfigChannel) refers to stm32f4xx_hal_tim.o(i.TIM_OC1_SetConfig) for TIM_OC1_SetConfig
    stm32f4xx_hal_tim.o(i.HAL_TIM_OC_ConfigChannel) refers to stm32f4xx_hal_tim.o(i.TIM_OC2_SetConfig) for TIM_OC2_SetConfig
    stm32f4xx_hal_tim.o(i.HAL_TIM_OC_ConfigChannel) refers to stm32f4xx_hal_tim.o(i.TIM_OC3_SetConfig) for TIM_OC3_SetConfig
    stm32f4xx_hal_tim.o(i.HAL_TIM_OC_ConfigChannel) refers to stm32f4xx_hal_tim.o(i.TIM_OC4_SetConfig) for TIM_OC4_SetConfig
    stm32f4xx_hal_tim.o(i.HAL_TIM_OC_DeInit) refers to stm32f4xx_hal_tim.o(i.HAL_TIM_OC_MspDeInit) for HAL_TIM_OC_MspDeInit
    stm32f4xx_hal_tim.o(i.HAL_TIM_OC_Init) refers to stm32f4xx_hal_tim.o(i.HAL_TIM_OC_MspInit) for HAL_TIM_OC_MspInit
    stm32f4xx_hal_tim.o(i.HAL_TIM_OC_Init) refers to stm32f4xx_hal_tim.o(i.TIM_Base_SetConfig) for TIM_Base_SetConfig
    stm32f4xx_hal_tim.o(i.HAL_TIM_OC_Start) refers to stm32f4xx_hal_tim.o(i.TIM_CCxChannelCmd) for TIM_CCxChannelCmd
    stm32f4xx_hal_tim.o(i.HAL_TIM_OC_Start_DMA) refers to stm32f4xx_hal_dma.o(i.HAL_DMA_Start_IT) for HAL_DMA_Start_IT
    stm32f4xx_hal_tim.o(i.HAL_TIM_OC_Start_DMA) refers to stm32f4xx_hal_tim.o(i.TIM_CCxChannelCmd) for TIM_CCxChannelCmd
    stm32f4xx_hal_tim.o(i.HAL_TIM_OC_Start_DMA) refers to stm32f4xx_hal_tim.o(i.TIM_DMADelayPulseCplt) for TIM_DMADelayPulseCplt
    stm32f4xx_hal_tim.o(i.HAL_TIM_OC_Start_DMA) refers to stm32f4xx_hal_tim.o(i.TIM_DMADelayPulseHalfCplt) for TIM_DMADelayPulseHalfCplt
    stm32f4xx_hal_tim.o(i.HAL_TIM_OC_Start_DMA) refers to stm32f4xx_hal_tim.o(i.TIM_DMAError) for TIM_DMAError
    stm32f4xx_hal_tim.o(i.HAL_TIM_OC_Start_IT) refers to stm32f4xx_hal_tim.o(i.TIM_CCxChannelCmd) for TIM_CCxChannelCmd
    stm32f4xx_hal_tim.o(i.HAL_TIM_OC_Stop) refers to stm32f4xx_hal_tim.o(i.TIM_CCxChannelCmd) for TIM_CCxChannelCmd
    stm32f4xx_hal_tim.o(i.HAL_TIM_OC_Stop_DMA) refers to stm32f4xx_hal_dma.o(i.HAL_DMA_Abort_IT) for HAL_DMA_Abort_IT
    stm32f4xx_hal_tim.o(i.HAL_TIM_OC_Stop_DMA) refers to stm32f4xx_hal_tim.o(i.TIM_CCxChannelCmd) for TIM_CCxChannelCmd
    stm32f4xx_hal_tim.o(i.HAL_TIM_OC_Stop_IT) refers to stm32f4xx_hal_tim.o(i.TIM_CCxChannelCmd) for TIM_CCxChannelCmd
    stm32f4xx_hal_tim.o(i.HAL_TIM_OnePulse_ConfigChannel) refers to stm32f4xx_hal_tim.o(i.TIM_OC1_SetConfig) for TIM_OC1_SetConfig
    stm32f4xx_hal_tim.o(i.HAL_TIM_OnePulse_ConfigChannel) refers to stm32f4xx_hal_tim.o(i.TIM_OC2_SetConfig) for TIM_OC2_SetConfig
    stm32f4xx_hal_tim.o(i.HAL_TIM_OnePulse_ConfigChannel) refers to stm32f4xx_hal_tim.o(i.TIM_TI1_SetConfig) for TIM_TI1_SetConfig
    stm32f4xx_hal_tim.o(i.HAL_TIM_OnePulse_ConfigChannel) refers to stm32f4xx_hal_tim.o(i.TIM_TI2_SetConfig) for TIM_TI2_SetConfig
    stm32f4xx_hal_tim.o(i.HAL_TIM_OnePulse_DeInit) refers to stm32f4xx_hal_tim.o(i.HAL_TIM_OnePulse_MspDeInit) for HAL_TIM_OnePulse_MspDeInit
    stm32f4xx_hal_tim.o(i.HAL_TIM_OnePulse_Init) refers to stm32f4xx_hal_tim.o(i.HAL_TIM_OnePulse_MspInit) for HAL_TIM_OnePulse_MspInit
    stm32f4xx_hal_tim.o(i.HAL_TIM_OnePulse_Init) refers to stm32f4xx_hal_tim.o(i.TIM_Base_SetConfig) for TIM_Base_SetConfig
    stm32f4xx_hal_tim.o(i.HAL_TIM_OnePulse_Start) refers to stm32f4xx_hal_tim.o(i.TIM_CCxChannelCmd) for TIM_CCxChannelCmd
    stm32f4xx_hal_tim.o(i.HAL_TIM_OnePulse_Start_IT) refers to stm32f4xx_hal_tim.o(i.TIM_CCxChannelCmd) for TIM_CCxChannelCmd
    stm32f4xx_hal_tim.o(i.HAL_TIM_OnePulse_Stop) refers to stm32f4xx_hal_tim.o(i.TIM_CCxChannelCmd) for TIM_CCxChannelCmd
    stm32f4xx_hal_tim.o(i.HAL_TIM_OnePulse_Stop_IT) refers to stm32f4xx_hal_tim.o(i.TIM_CCxChannelCmd) for TIM_CCxChannelCmd
    stm32f4xx_hal_tim.o(i.HAL_TIM_PWM_ConfigChannel) refers to stm32f4xx_hal_tim.o(i.TIM_OC1_SetConfig) for TIM_OC1_SetConfig
    stm32f4xx_hal_tim.o(i.HAL_TIM_PWM_ConfigChannel) refers to stm32f4xx_hal_tim.o(i.TIM_OC2_SetConfig) for TIM_OC2_SetConfig
    stm32f4xx_hal_tim.o(i.HAL_TIM_PWM_ConfigChannel) refers to stm32f4xx_hal_tim.o(i.TIM_OC3_SetConfig) for TIM_OC3_SetConfig
    stm32f4xx_hal_tim.o(i.HAL_TIM_PWM_ConfigChannel) refers to stm32f4xx_hal_tim.o(i.TIM_OC4_SetConfig) for TIM_OC4_SetConfig
    stm32f4xx_hal_tim.o(i.HAL_TIM_PWM_DeInit) refers to stm32f4xx_hal_tim.o(i.HAL_TIM_PWM_MspDeInit) for HAL_TIM_PWM_MspDeInit
    stm32f4xx_hal_tim.o(i.HAL_TIM_PWM_Init) refers to stm32f4xx_hal_tim.o(i.HAL_TIM_PWM_MspInit) for HAL_TIM_PWM_MspInit
    stm32f4xx_hal_tim.o(i.HAL_TIM_PWM_Init) refers to stm32f4xx_hal_tim.o(i.TIM_Base_SetConfig) for TIM_Base_SetConfig
    stm32f4xx_hal_tim.o(i.HAL_TIM_PWM_Start) refers to stm32f4xx_hal_tim.o(i.TIM_CCxChannelCmd) for TIM_CCxChannelCmd
    stm32f4xx_hal_tim.o(i.HAL_TIM_PWM_Start_DMA) refers to stm32f4xx_hal_dma.o(i.HAL_DMA_Start_IT) for HAL_DMA_Start_IT
    stm32f4xx_hal_tim.o(i.HAL_TIM_PWM_Start_DMA) refers to stm32f4xx_hal_tim.o(i.TIM_CCxChannelCmd) for TIM_CCxChannelCmd
    stm32f4xx_hal_tim.o(i.HAL_TIM_PWM_Start_DMA) refers to stm32f4xx_hal_tim.o(i.TIM_DMADelayPulseCplt) for TIM_DMADelayPulseCplt
    stm32f4xx_hal_tim.o(i.HAL_TIM_PWM_Start_DMA) refers to stm32f4xx_hal_tim.o(i.TIM_DMADelayPulseHalfCplt) for TIM_DMADelayPulseHalfCplt
    stm32f4xx_hal_tim.o(i.HAL_TIM_PWM_Start_DMA) refers to stm32f4xx_hal_tim.o(i.TIM_DMAError) for TIM_DMAError
    stm32f4xx_hal_tim.o(i.HAL_TIM_PWM_Start_IT) refers to stm32f4xx_hal_tim.o(i.TIM_CCxChannelCmd) for TIM_CCxChannelCmd
    stm32f4xx_hal_tim.o(i.HAL_TIM_PWM_Stop) refers to stm32f4xx_hal_tim.o(i.TIM_CCxChannelCmd) for TIM_CCxChannelCmd
    stm32f4xx_hal_tim.o(i.HAL_TIM_PWM_Stop_DMA) refers to stm32f4xx_hal_dma.o(i.HAL_DMA_Abort_IT) for HAL_DMA_Abort_IT
    stm32f4xx_hal_tim.o(i.HAL_TIM_PWM_Stop_DMA) refers to stm32f4xx_hal_tim.o(i.TIM_CCxChannelCmd) for TIM_CCxChannelCmd
    stm32f4xx_hal_tim.o(i.HAL_TIM_PWM_Stop_IT) refers to stm32f4xx_hal_tim.o(i.TIM_CCxChannelCmd) for TIM_CCxChannelCmd
    stm32f4xx_hal_tim.o(i.HAL_TIM_SlaveConfigSynchro) refers to stm32f4xx_hal_tim.o(i.TIM_SlaveTimer_SetConfig) for TIM_SlaveTimer_SetConfig
    stm32f4xx_hal_tim.o(i.HAL_TIM_SlaveConfigSynchro_IT) refers to stm32f4xx_hal_tim.o(i.TIM_SlaveTimer_SetConfig) for TIM_SlaveTimer_SetConfig
    stm32f4xx_hal_tim.o(i.TIM_DMACaptureCplt) refers to main.o(i.HAL_TIM_IC_CaptureCallback) for HAL_TIM_IC_CaptureCallback
    stm32f4xx_hal_tim.o(i.TIM_DMACaptureHalfCplt) refers to stm32f4xx_hal_tim.o(i.HAL_TIM_IC_CaptureHalfCpltCallback) for HAL_TIM_IC_CaptureHalfCpltCallback
    stm32f4xx_hal_tim.o(i.TIM_DMADelayPulseCplt) refers to stm32f4xx_hal_tim.o(i.HAL_TIM_PWM_PulseFinishedCallback) for HAL_TIM_PWM_PulseFinishedCallback
    stm32f4xx_hal_tim.o(i.TIM_DMADelayPulseHalfCplt) refers to stm32f4xx_hal_tim.o(i.HAL_TIM_PWM_PulseFinishedHalfCpltCallback) for HAL_TIM_PWM_PulseFinishedHalfCpltCallback
    stm32f4xx_hal_tim.o(i.TIM_DMAError) refers to stm32f4xx_hal_tim.o(i.HAL_TIM_ErrorCallback) for HAL_TIM_ErrorCallback
    stm32f4xx_hal_tim.o(i.TIM_DMAPeriodElapsedCplt) refers to main.o(i.HAL_TIM_PeriodElapsedCallback) for HAL_TIM_PeriodElapsedCallback
    stm32f4xx_hal_tim.o(i.TIM_DMAPeriodElapsedHalfCplt) refers to stm32f4xx_hal_tim.o(i.HAL_TIM_PeriodElapsedHalfCpltCallback) for HAL_TIM_PeriodElapsedHalfCpltCallback
    stm32f4xx_hal_tim.o(i.TIM_DMATriggerCplt) refers to stm32f4xx_hal_tim.o(i.HAL_TIM_TriggerCallback) for HAL_TIM_TriggerCallback
    stm32f4xx_hal_tim.o(i.TIM_DMATriggerHalfCplt) refers to stm32f4xx_hal_tim.o(i.HAL_TIM_TriggerHalfCpltCallback) for HAL_TIM_TriggerHalfCpltCallback
    stm32f4xx_hal_tim.o(i.TIM_SlaveTimer_SetConfig) refers to stm32f4xx_hal_tim.o(i.TIM_ETR_SetConfig) for TIM_ETR_SetConfig
    stm32f4xx_hal_tim.o(i.TIM_SlaveTimer_SetConfig) refers to stm32f4xx_hal_tim.o(i.TIM_TI1_ConfigInputStage) for TIM_TI1_ConfigInputStage
    stm32f4xx_hal_tim.o(i.TIM_SlaveTimer_SetConfig) refers to stm32f4xx_hal_tim.o(i.TIM_TI2_ConfigInputStage) for TIM_TI2_ConfigInputStage
    stm32f4xx_hal_tim_ex.o(i.HAL_TIMEx_ConfigCommutEvent_DMA) refers to stm32f4xx_hal_tim_ex.o(i.TIMEx_DMACommutationCplt) for TIMEx_DMACommutationCplt
    stm32f4xx_hal_tim_ex.o(i.HAL_TIMEx_ConfigCommutEvent_DMA) refers to stm32f4xx_hal_tim_ex.o(i.TIMEx_DMACommutationHalfCplt) for TIMEx_DMACommutationHalfCplt
    stm32f4xx_hal_tim_ex.o(i.HAL_TIMEx_ConfigCommutEvent_DMA) refers to stm32f4xx_hal_tim.o(i.TIM_DMAError) for TIM_DMAError
    stm32f4xx_hal_tim_ex.o(i.HAL_TIMEx_HallSensor_DeInit) refers to stm32f4xx_hal_tim_ex.o(i.HAL_TIMEx_HallSensor_MspDeInit) for HAL_TIMEx_HallSensor_MspDeInit
    stm32f4xx_hal_tim_ex.o(i.HAL_TIMEx_HallSensor_Init) refers to stm32f4xx_hal_tim_ex.o(i.HAL_TIMEx_HallSensor_MspInit) for HAL_TIMEx_HallSensor_MspInit
    stm32f4xx_hal_tim_ex.o(i.HAL_TIMEx_HallSensor_Init) refers to stm32f4xx_hal_tim.o(i.TIM_Base_SetConfig) for TIM_Base_SetConfig
    stm32f4xx_hal_tim_ex.o(i.HAL_TIMEx_HallSensor_Init) refers to stm32f4xx_hal_tim.o(i.TIM_TI1_SetConfig) for TIM_TI1_SetConfig
    stm32f4xx_hal_tim_ex.o(i.HAL_TIMEx_HallSensor_Init) refers to stm32f4xx_hal_tim.o(i.TIM_OC2_SetConfig) for TIM_OC2_SetConfig
    stm32f4xx_hal_tim_ex.o(i.HAL_TIMEx_HallSensor_Start) refers to stm32f4xx_hal_tim.o(i.TIM_CCxChannelCmd) for TIM_CCxChannelCmd
    stm32f4xx_hal_tim_ex.o(i.HAL_TIMEx_HallSensor_Start_DMA) refers to stm32f4xx_hal_tim.o(i.TIM_CCxChannelCmd) for TIM_CCxChannelCmd
    stm32f4xx_hal_tim_ex.o(i.HAL_TIMEx_HallSensor_Start_DMA) refers to stm32f4xx_hal_dma.o(i.HAL_DMA_Start_IT) for HAL_DMA_Start_IT
    stm32f4xx_hal_tim_ex.o(i.HAL_TIMEx_HallSensor_Start_DMA) refers to stm32f4xx_hal_tim.o(i.TIM_DMACaptureCplt) for TIM_DMACaptureCplt
    stm32f4xx_hal_tim_ex.o(i.HAL_TIMEx_HallSensor_Start_DMA) refers to stm32f4xx_hal_tim.o(i.TIM_DMACaptureHalfCplt) for TIM_DMACaptureHalfCplt
    stm32f4xx_hal_tim_ex.o(i.HAL_TIMEx_HallSensor_Start_DMA) refers to stm32f4xx_hal_tim.o(i.TIM_DMAError) for TIM_DMAError
    stm32f4xx_hal_tim_ex.o(i.HAL_TIMEx_HallSensor_Start_IT) refers to stm32f4xx_hal_tim.o(i.TIM_CCxChannelCmd) for TIM_CCxChannelCmd
    stm32f4xx_hal_tim_ex.o(i.HAL_TIMEx_HallSensor_Stop) refers to stm32f4xx_hal_tim.o(i.TIM_CCxChannelCmd) for TIM_CCxChannelCmd
    stm32f4xx_hal_tim_ex.o(i.HAL_TIMEx_HallSensor_Stop_DMA) refers to stm32f4xx_hal_tim.o(i.TIM_CCxChannelCmd) for TIM_CCxChannelCmd
    stm32f4xx_hal_tim_ex.o(i.HAL_TIMEx_HallSensor_Stop_DMA) refers to stm32f4xx_hal_dma.o(i.HAL_DMA_Abort_IT) for HAL_DMA_Abort_IT
    stm32f4xx_hal_tim_ex.o(i.HAL_TIMEx_HallSensor_Stop_IT) refers to stm32f4xx_hal_tim.o(i.TIM_CCxChannelCmd) for TIM_CCxChannelCmd
    stm32f4xx_hal_tim_ex.o(i.HAL_TIMEx_OCN_Start) refers to stm32f4xx_hal_tim_ex.o(i.TIM_CCxNChannelCmd) for TIM_CCxNChannelCmd
    stm32f4xx_hal_tim_ex.o(i.HAL_TIMEx_OCN_Start_DMA) refers to stm32f4xx_hal_dma.o(i.HAL_DMA_Start_IT) for HAL_DMA_Start_IT
    stm32f4xx_hal_tim_ex.o(i.HAL_TIMEx_OCN_Start_DMA) refers to stm32f4xx_hal_tim_ex.o(i.TIM_CCxNChannelCmd) for TIM_CCxNChannelCmd
    stm32f4xx_hal_tim_ex.o(i.HAL_TIMEx_OCN_Start_DMA) refers to stm32f4xx_hal_tim.o(i.TIM_DMADelayPulseCplt) for TIM_DMADelayPulseCplt
    stm32f4xx_hal_tim_ex.o(i.HAL_TIMEx_OCN_Start_DMA) refers to stm32f4xx_hal_tim.o(i.TIM_DMADelayPulseHalfCplt) for TIM_DMADelayPulseHalfCplt
    stm32f4xx_hal_tim_ex.o(i.HAL_TIMEx_OCN_Start_DMA) refers to stm32f4xx_hal_tim.o(i.TIM_DMAError) for TIM_DMAError
    stm32f4xx_hal_tim_ex.o(i.HAL_TIMEx_OCN_Start_IT) refers to stm32f4xx_hal_tim_ex.o(i.TIM_CCxNChannelCmd) for TIM_CCxNChannelCmd
    stm32f4xx_hal_tim_ex.o(i.HAL_TIMEx_OCN_Stop) refers to stm32f4xx_hal_tim_ex.o(i.TIM_CCxNChannelCmd) for TIM_CCxNChannelCmd
    stm32f4xx_hal_tim_ex.o(i.HAL_TIMEx_OCN_Stop_DMA) refers to stm32f4xx_hal_dma.o(i.HAL_DMA_Abort_IT) for HAL_DMA_Abort_IT
    stm32f4xx_hal_tim_ex.o(i.HAL_TIMEx_OCN_Stop_DMA) refers to stm32f4xx_hal_tim_ex.o(i.TIM_CCxNChannelCmd) for TIM_CCxNChannelCmd
    stm32f4xx_hal_tim_ex.o(i.HAL_TIMEx_OCN_Stop_IT) refers to stm32f4xx_hal_tim_ex.o(i.TIM_CCxNChannelCmd) for TIM_CCxNChannelCmd
    stm32f4xx_hal_tim_ex.o(i.HAL_TIMEx_OnePulseN_Start) refers to stm32f4xx_hal_tim_ex.o(i.TIM_CCxNChannelCmd) for TIM_CCxNChannelCmd
    stm32f4xx_hal_tim_ex.o(i.HAL_TIMEx_OnePulseN_Start_IT) refers to stm32f4xx_hal_tim_ex.o(i.TIM_CCxNChannelCmd) for TIM_CCxNChannelCmd
    stm32f4xx_hal_tim_ex.o(i.HAL_TIMEx_OnePulseN_Stop) refers to stm32f4xx_hal_tim_ex.o(i.TIM_CCxNChannelCmd) for TIM_CCxNChannelCmd
    stm32f4xx_hal_tim_ex.o(i.HAL_TIMEx_OnePulseN_Stop_IT) refers to stm32f4xx_hal_tim_ex.o(i.TIM_CCxNChannelCmd) for TIM_CCxNChannelCmd
    stm32f4xx_hal_tim_ex.o(i.HAL_TIMEx_PWMN_Start) refers to stm32f4xx_hal_tim_ex.o(i.TIM_CCxNChannelCmd) for TIM_CCxNChannelCmd
    stm32f4xx_hal_tim_ex.o(i.HAL_TIMEx_PWMN_Start_DMA) refers to stm32f4xx_hal_dma.o(i.HAL_DMA_Start_IT) for HAL_DMA_Start_IT
    stm32f4xx_hal_tim_ex.o(i.HAL_TIMEx_PWMN_Start_DMA) refers to stm32f4xx_hal_tim_ex.o(i.TIM_CCxNChannelCmd) for TIM_CCxNChannelCmd
    stm32f4xx_hal_tim_ex.o(i.HAL_TIMEx_PWMN_Start_DMA) refers to stm32f4xx_hal_tim.o(i.TIM_DMADelayPulseCplt) for TIM_DMADelayPulseCplt
    stm32f4xx_hal_tim_ex.o(i.HAL_TIMEx_PWMN_Start_DMA) refers to stm32f4xx_hal_tim.o(i.TIM_DMADelayPulseHalfCplt) for TIM_DMADelayPulseHalfCplt
    stm32f4xx_hal_tim_ex.o(i.HAL_TIMEx_PWMN_Start_DMA) refers to stm32f4xx_hal_tim.o(i.TIM_DMAError) for TIM_DMAError
    stm32f4xx_hal_tim_ex.o(i.HAL_TIMEx_PWMN_Start_IT) refers to stm32f4xx_hal_tim_ex.o(i.TIM_CCxNChannelCmd) for TIM_CCxNChannelCmd
    stm32f4xx_hal_tim_ex.o(i.HAL_TIMEx_PWMN_Stop) refers to stm32f4xx_hal_tim_ex.o(i.TIM_CCxNChannelCmd) for TIM_CCxNChannelCmd
    stm32f4xx_hal_tim_ex.o(i.HAL_TIMEx_PWMN_Stop_DMA) refers to stm32f4xx_hal_dma.o(i.HAL_DMA_Abort_IT) for HAL_DMA_Abort_IT
    stm32f4xx_hal_tim_ex.o(i.HAL_TIMEx_PWMN_Stop_DMA) refers to stm32f4xx_hal_tim_ex.o(i.TIM_CCxNChannelCmd) for TIM_CCxNChannelCmd
    stm32f4xx_hal_tim_ex.o(i.HAL_TIMEx_PWMN_Stop_IT) refers to stm32f4xx_hal_tim_ex.o(i.TIM_CCxNChannelCmd) for TIM_CCxNChannelCmd
    stm32f4xx_hal_tim_ex.o(i.TIMEx_DMACommutationCplt) refers to stm32f4xx_hal_tim_ex.o(i.HAL_TIMEx_CommutCallback) for HAL_TIMEx_CommutCallback
    stm32f4xx_hal_tim_ex.o(i.TIMEx_DMACommutationHalfCplt) refers to stm32f4xx_hal_tim_ex.o(i.HAL_TIMEx_CommutHalfCpltCallback) for HAL_TIMEx_CommutHalfCpltCallback
    stm32f4xx_hal_uart.o(i.HAL_HalfDuplex_Init) refers to stm32f4xx_hal_msp.o(i.HAL_UART_MspInit) for HAL_UART_MspInit
    stm32f4xx_hal_uart.o(i.HAL_HalfDuplex_Init) refers to stm32f4xx_hal_uart.o(i.UART_SetConfig) for UART_SetConfig
    stm32f4xx_hal_uart.o(i.HAL_LIN_Init) refers to stm32f4xx_hal_msp.o(i.HAL_UART_MspInit) for HAL_UART_MspInit
    stm32f4xx_hal_uart.o(i.HAL_LIN_Init) refers to stm32f4xx_hal_uart.o(i.UART_SetConfig) for UART_SetConfig
    stm32f4xx_hal_uart.o(i.HAL_MultiProcessor_Init) refers to stm32f4xx_hal_msp.o(i.HAL_UART_MspInit) for HAL_UART_MspInit
    stm32f4xx_hal_uart.o(i.HAL_MultiProcessor_Init) refers to stm32f4xx_hal_uart.o(i.UART_SetConfig) for UART_SetConfig
    stm32f4xx_hal_uart.o(i.HAL_UART_Abort) refers to stm32f4xx_hal_dma.o(i.HAL_DMA_Abort) for HAL_DMA_Abort
    stm32f4xx_hal_uart.o(i.HAL_UART_Abort) refers to stm32f4xx_hal_dma.o(i.HAL_DMA_GetError) for HAL_DMA_GetError
    stm32f4xx_hal_uart.o(i.HAL_UART_AbortReceive) refers to stm32f4xx_hal_dma.o(i.HAL_DMA_Abort) for HAL_DMA_Abort
    stm32f4xx_hal_uart.o(i.HAL_UART_AbortReceive) refers to stm32f4xx_hal_dma.o(i.HAL_DMA_GetError) for HAL_DMA_GetError
    stm32f4xx_hal_uart.o(i.HAL_UART_AbortReceive_IT) refers to stm32f4xx_hal_dma.o(i.HAL_DMA_Abort_IT) for HAL_DMA_Abort_IT
    stm32f4xx_hal_uart.o(i.HAL_UART_AbortReceive_IT) refers to stm32f4xx_hal_uart.o(i.HAL_UART_AbortReceiveCpltCallback) for HAL_UART_AbortReceiveCpltCallback
    stm32f4xx_hal_uart.o(i.HAL_UART_AbortReceive_IT) refers to stm32f4xx_hal_uart.o(i.UART_DMARxOnlyAbortCallback) for UART_DMARxOnlyAbortCallback
    stm32f4xx_hal_uart.o(i.HAL_UART_AbortTransmit) refers to stm32f4xx_hal_dma.o(i.HAL_DMA_Abort) for HAL_DMA_Abort
    stm32f4xx_hal_uart.o(i.HAL_UART_AbortTransmit) refers to stm32f4xx_hal_dma.o(i.HAL_DMA_GetError) for HAL_DMA_GetError
    stm32f4xx_hal_uart.o(i.HAL_UART_AbortTransmit_IT) refers to stm32f4xx_hal_dma.o(i.HAL_DMA_Abort_IT) for HAL_DMA_Abort_IT
    stm32f4xx_hal_uart.o(i.HAL_UART_AbortTransmit_IT) refers to stm32f4xx_hal_uart.o(i.HAL_UART_AbortTransmitCpltCallback) for HAL_UART_AbortTransmitCpltCallback
    stm32f4xx_hal_uart.o(i.HAL_UART_AbortTransmit_IT) refers to stm32f4xx_hal_uart.o(i.UART_DMATxOnlyAbortCallback) for UART_DMATxOnlyAbortCallback
    stm32f4xx_hal_uart.o(i.HAL_UART_Abort_IT) refers to stm32f4xx_hal_dma.o(i.HAL_DMA_Abort_IT) for HAL_DMA_Abort_IT
    stm32f4xx_hal_uart.o(i.HAL_UART_Abort_IT) refers to stm32f4xx_hal_uart.o(i.HAL_UART_AbortCpltCallback) for HAL_UART_AbortCpltCallback
    stm32f4xx_hal_uart.o(i.HAL_UART_Abort_IT) refers to stm32f4xx_hal_uart.o(i.UART_DMATxAbortCallback) for UART_DMATxAbortCallback
    stm32f4xx_hal_uart.o(i.HAL_UART_Abort_IT) refers to stm32f4xx_hal_uart.o(i.UART_DMARxAbortCallback) for UART_DMARxAbortCallback
    stm32f4xx_hal_uart.o(i.HAL_UART_DMAStop) refers to stm32f4xx_hal_dma.o(i.HAL_DMA_Abort) for HAL_DMA_Abort
    stm32f4xx_hal_uart.o(i.HAL_UART_DMAStop) refers to stm32f4xx_hal_uart.o(i.UART_EndTxTransfer) for UART_EndTxTransfer
    stm32f4xx_hal_uart.o(i.HAL_UART_DMAStop) refers to stm32f4xx_hal_uart.o(i.UART_EndRxTransfer) for UART_EndRxTransfer
    stm32f4xx_hal_uart.o(i.HAL_UART_DeInit) refers to stm32f4xx_hal_msp.o(i.HAL_UART_MspDeInit) for HAL_UART_MspDeInit
    stm32f4xx_hal_uart.o(i.HAL_UART_IRQHandler) refers to stm32f4xx_hal_uart.o(i.UART_Receive_IT) for UART_Receive_IT
    stm32f4xx_hal_uart.o(i.HAL_UART_IRQHandler) refers to stm32f4xx_hal_uart.o(i.UART_EndRxTransfer) for UART_EndRxTransfer
    stm32f4xx_hal_uart.o(i.HAL_UART_IRQHandler) refers to stm32f4xx_hal_dma.o(i.HAL_DMA_Abort_IT) for HAL_DMA_Abort_IT
    stm32f4xx_hal_uart.o(i.HAL_UART_IRQHandler) refers to stm32f4xx_hal_uart.o(i.HAL_UART_ErrorCallback) for HAL_UART_ErrorCallback
    stm32f4xx_hal_uart.o(i.HAL_UART_IRQHandler) refers to stm32f4xx_hal_uart.o(i.UART_Transmit_IT) for UART_Transmit_IT
    stm32f4xx_hal_uart.o(i.HAL_UART_IRQHandler) refers to stm32f4xx_hal_uart.o(i.UART_EndTransmit_IT) for UART_EndTransmit_IT
    stm32f4xx_hal_uart.o(i.HAL_UART_IRQHandler) refers to stm32f4xx_hal_uart.o(i.UART_DMAAbortOnError) for UART_DMAAbortOnError
    stm32f4xx_hal_uart.o(i.HAL_UART_Init) refers to stm32f4xx_hal_msp.o(i.HAL_UART_MspInit) for HAL_UART_MspInit
    stm32f4xx_hal_uart.o(i.HAL_UART_Init) refers to stm32f4xx_hal_uart.o(i.UART_SetConfig) for UART_SetConfig
    stm32f4xx_hal_uart.o(i.HAL_UART_Receive) refers to stm32f4xx_hal.o(i.HAL_GetTick) for HAL_GetTick
    stm32f4xx_hal_uart.o(i.HAL_UART_Receive) refers to stm32f4xx_hal_uart.o(i.UART_WaitOnFlagUntilTimeout) for UART_WaitOnFlagUntilTimeout
    stm32f4xx_hal_uart.o(i.HAL_UART_Receive_DMA) refers to stm32f4xx_hal_dma.o(i.HAL_DMA_Start_IT) for HAL_DMA_Start_IT
    stm32f4xx_hal_uart.o(i.HAL_UART_Receive_DMA) refers to stm32f4xx_hal_uart.o(i.UART_DMAReceiveCplt) for UART_DMAReceiveCplt
    stm32f4xx_hal_uart.o(i.HAL_UART_Receive_DMA) refers to stm32f4xx_hal_uart.o(i.UART_DMARxHalfCplt) for UART_DMARxHalfCplt
    stm32f4xx_hal_uart.o(i.HAL_UART_Receive_DMA) refers to stm32f4xx_hal_uart.o(i.UART_DMAError) for UART_DMAError
    stm32f4xx_hal_uart.o(i.HAL_UART_Transmit) refers to stm32f4xx_hal.o(i.HAL_GetTick) for HAL_GetTick
    stm32f4xx_hal_uart.o(i.HAL_UART_Transmit) refers to stm32f4xx_hal_uart.o(i.UART_WaitOnFlagUntilTimeout) for UART_WaitOnFlagUntilTimeout
    stm32f4xx_hal_uart.o(i.HAL_UART_Transmit_DMA) refers to stm32f4xx_hal_dma.o(i.HAL_DMA_Start_IT) for HAL_DMA_Start_IT
    stm32f4xx_hal_uart.o(i.HAL_UART_Transmit_DMA) refers to stm32f4xx_hal_uart.o(i.UART_DMATransmitCplt) for UART_DMATransmitCplt
    stm32f4xx_hal_uart.o(i.HAL_UART_Transmit_DMA) refers to stm32f4xx_hal_uart.o(i.UART_DMATxHalfCplt) for UART_DMATxHalfCplt
    stm32f4xx_hal_uart.o(i.HAL_UART_Transmit_DMA) refers to stm32f4xx_hal_uart.o(i.UART_DMAError) for UART_DMAError
    stm32f4xx_hal_uart.o(i.UART_DMAAbortOnError) refers to stm32f4xx_hal_uart.o(i.HAL_UART_ErrorCallback) for HAL_UART_ErrorCallback
    stm32f4xx_hal_uart.o(i.UART_DMAError) refers to stm32f4xx_hal_uart.o(i.UART_EndTxTransfer) for UART_EndTxTransfer
    stm32f4xx_hal_uart.o(i.UART_DMAError) refers to stm32f4xx_hal_uart.o(i.UART_EndRxTransfer) for UART_EndRxTransfer
    stm32f4xx_hal_uart.o(i.UART_DMAError) refers to stm32f4xx_hal_uart.o(i.HAL_UART_ErrorCallback) for HAL_UART_ErrorCallback
    stm32f4xx_hal_uart.o(i.UART_DMAReceiveCplt) refers to agreement.o(i.HAL_UART_RxCpltCallback) for HAL_UART_RxCpltCallback
    stm32f4xx_hal_uart.o(i.UART_DMARxAbortCallback) refers to stm32f4xx_hal_uart.o(i.HAL_UART_AbortCpltCallback) for HAL_UART_AbortCpltCallback
    stm32f4xx_hal_uart.o(i.UART_DMARxHalfCplt) refers to stm32f4xx_hal_uart.o(i.HAL_UART_RxHalfCpltCallback) for HAL_UART_RxHalfCpltCallback
    stm32f4xx_hal_uart.o(i.UART_DMARxOnlyAbortCallback) refers to stm32f4xx_hal_uart.o(i.HAL_UART_AbortReceiveCpltCallback) for HAL_UART_AbortReceiveCpltCallback
    stm32f4xx_hal_uart.o(i.UART_DMATransmitCplt) refers to stm32f4xx_hal_uart.o(i.HAL_UART_TxCpltCallback) for HAL_UART_TxCpltCallback
    stm32f4xx_hal_uart.o(i.UART_DMATxAbortCallback) refers to stm32f4xx_hal_uart.o(i.HAL_UART_AbortCpltCallback) for HAL_UART_AbortCpltCallback
    stm32f4xx_hal_uart.o(i.UART_DMATxHalfCplt) refers to stm32f4xx_hal_uart.o(i.HAL_UART_TxHalfCpltCallback) for HAL_UART_TxHalfCpltCallback
    stm32f4xx_hal_uart.o(i.UART_DMATxOnlyAbortCallback) refers to stm32f4xx_hal_uart.o(i.HAL_UART_AbortTransmitCpltCallback) for HAL_UART_AbortTransmitCpltCallback
    stm32f4xx_hal_uart.o(i.UART_EndTransmit_IT) refers to stm32f4xx_hal_uart.o(i.HAL_UART_TxCpltCallback) for HAL_UART_TxCpltCallback
    stm32f4xx_hal_uart.o(i.UART_Receive_IT) refers to agreement.o(i.HAL_UART_RxCpltCallback) for HAL_UART_RxCpltCallback
    stm32f4xx_hal_uart.o(i.UART_SetConfig) refers to stm32f4xx_hal_rcc.o(i.HAL_RCC_GetPCLK2Freq) for HAL_RCC_GetPCLK2Freq
    stm32f4xx_hal_uart.o(i.UART_SetConfig) refers to uldiv.o(.text) for __aeabi_uldivmod
    stm32f4xx_hal_uart.o(i.UART_SetConfig) refers to stm32f4xx_hal_rcc.o(i.HAL_RCC_GetPCLK1Freq) for HAL_RCC_GetPCLK1Freq
    stm32f4xx_hal_uart.o(i.UART_WaitOnFlagUntilTimeout) refers to stm32f4xx_hal.o(i.HAL_GetTick) for HAL_GetTick
    stm32f4xx_hal_iwdg.o(i.HAL_IWDG_Init) refers to stm32f4xx_hal.o(i.HAL_GetTick) for HAL_GetTick
    system_stm32f4xx.o(i.SystemCoreClockUpdate) refers to system_stm32f4xx.o(.data) for SystemCoreClock
    system_stm32f4xx.o(i.SystemCoreClockUpdate) refers to system_stm32f4xx.o(.constdata) for AHBPrescTable
    function.o(i.BLDC1_OverSpdChk) refers to function.o(i.MC_SetFault) for MC_SetFault
    function.o(i.BLDC1_OverSpdChk) refers to bsp_bdcmotor.o(.bss) for MotorControl
    function.o(i.BLDC1_OverSpdChk) refers to function.o(.data) for speed_err_cnt1
    function.o(i.BLDC2_OverSpdChk) refers to function.o(i.MC_SetFault) for MC_SetFault
    function.o(i.BLDC2_OverSpdChk) refers to bsp_bdcmotor.o(.bss) for MotorControl
    function.o(i.BLDC2_OverSpdChk) refers to function.o(.data) for speed_err_cnt2
    function.o(i.BLDC5_Phase_Check) refers to function.o(i.MC_SetFault) for MC_SetFault
    function.o(i.BLDC5_Phase_Check) refers to bsp_bdcmotor.o(.bss) for MotorControl
    function.o(i.BLDC5_Phase_Check) refers to function.o(.data) for motor_err_cnt5
    function.o(i.BLDC6_Phase_Check) refers to function.o(i.MC_SetFault) for MC_SetFault
    function.o(i.BLDC6_Phase_Check) refers to bsp_bdcmotor.o(.bss) for MotorControl
    function.o(i.BLDC6_Phase_Check) refers to function.o(.data) for motor_err_cnt6
    function.o(i.BLDC_Stuck_Chk) refers to bsp_bdcmotor.o(i.GetMotorSpeed) for GetMotorSpeed
    function.o(i.BLDC_Stuck_Chk) refers to function.o(i.MC_SetFault) for MC_SetFault
    function.o(i.BLDC_Stuck_Chk) refers to bsp_bdcmotor.o(.bss) for MotorControl
    function.o(i.BLDC_Stuck_Chk) refers to function.o(.data) for M5phase_check_cnt
    function.o(i.BubbleSort) refers to function.o(i.swap) for swap
    function.o(i.CurrentLimit) refers to bsp_bdcmotor.o(i.SetMotorStop) for SetMotorStop
    function.o(i.CurrentLimit) refers to function.o(i.MC_SetFault) for MC_SetFault
    function.o(i.CurrentLimit) refers to bsp_bdcmotor.o(.bss) for MotorControl
    function.o(i.DisplayErrLed) refers to stm32f4xx_hal_gpio.o(i.HAL_GPIO_WritePin) for HAL_GPIO_WritePin
    function.o(i.DisplayErrLed) refers to function.o(i.LEDSet) for LEDSet
    function.o(i.DisplayErrLed) refers to function.o(.data) for DisplayCounter
    function.o(i.Hardware_flowCheck) refers to function.o(i.MC_SetFault) for MC_SetFault
    function.o(i.Hardware_flowCheck) refers to main.o(.data) for OverFlow_Cnt
    function.o(i.Hardware_flowCheck) refers to bsp_bdcmotor.o(.bss) for MotorControl
    function.o(i.Init_Drive_Para) refers to mc_pid_regulators.o(i.PID_Init) for PID_Init
    function.o(i.Init_Drive_Para) refers to mc_pid_regulators.o(i.PID_PWM_Init) for PID_PWM_Init
    function.o(i.Init_Drive_Para) refers to bsp_bdcmotor.o(i.HALL_GetPhase2) for HALL_GetPhase2
    function.o(i.Init_Drive_Para) refers to function.o(.bss) for VoltVar
    function.o(i.Init_Drive_Para) refers to bsp_bdcmotor.o(.bss) for MotorControl
    function.o(i.Init_Drive_Para) refers to mc_pid_regulators.o(.bss) for PID_Current_InitStructure
    function.o(i.LEDSet) refers to stm32f4xx_hal_gpio.o(i.HAL_GPIO_WritePin) for HAL_GPIO_WritePin
    function.o(i.LEDSet) refers to stm32f4xx_hal_gpio.o(i.HAL_GPIO_TogglePin) for HAL_GPIO_TogglePin
    function.o(i.LEDSet) refers to function.o(.data) for DisplayCounter
    function.o(i.MC_ClearFault) refers to function.o(.data) for wGlobal_Flags
    function.o(i.MC_SetFault) refers to function.o(.data) for wGlobal_Flags
    function.o(i.MC_SetFault1) refers to function.o(.data) for wGlobal_Flags1
    function.o(i.Motor5_Default_Phase_Cheek) refers to function.o(i.BubbleSort) for BubbleSort
    function.o(i.Motor5_Default_Phase_Cheek) refers to f2d.o(.text) for __aeabi_f2d
    function.o(i.Motor5_Default_Phase_Cheek) refers to cdrcmple.o(.text) for __aeabi_cdrcmple
    function.o(i.Motor5_Default_Phase_Cheek) refers to function.o(i.MC_SetFault) for MC_SetFault
    function.o(i.Motor5_Default_Phase_Cheek) refers to bsp_bdcmotor.o(.bss) for MotorControl
    function.o(i.Motor5_Default_Phase_Cheek) refers to function.o(.bss) for Motor5_Current_temp
    function.o(i.Motor5_Default_Phase_Cheek) refers to function.o(.data) for testM5_100us_ac_ab_bc_cur
    function.o(i.Motor6_Default_Phase_Cheek) refers to function.o(i.BubbleSort) for BubbleSort
    function.o(i.Motor6_Default_Phase_Cheek) refers to f2d.o(.text) for __aeabi_f2d
    function.o(i.Motor6_Default_Phase_Cheek) refers to cdrcmple.o(.text) for __aeabi_cdrcmple
    function.o(i.Motor6_Default_Phase_Cheek) refers to function.o(i.MC_SetFault) for MC_SetFault
    function.o(i.Motor6_Default_Phase_Cheek) refers to bsp_bdcmotor.o(.bss) for MotorControl
    function.o(i.Motor6_Default_Phase_Cheek) refers to function.o(.bss) for Motor6_Current_temp
    function.o(i.Motor6_Default_Phase_Cheek) refers to function.o(.data) for testM6_100us_ac_ab_bc_cur
    function.o(i.Motor7_Err_Chk) refers to function.o(i.MC_SetFault) for MC_SetFault
    function.o(i.Motor7_Err_Chk) refers to bsp_bdcmotor.o(.bss) for MotorControl
    function.o(i.Motor7_Err_Chk) refers to function.o(.data) for err_cur_cnt
    function.o(i.MotorStuckCheck) refers to function.o(i.CurrentLimit) for CurrentLimit
    function.o(i.Motor_Fault_Clear) refers to main.o(.data) for OverFlow_Cnt
    function.o(i.Motor_Fault_Clear) refers to function.o(.data) for wGlobal_Flags
    function.o(i.Motor_Fault_Clear) refers to bsp_bdcmotor.o(.bss) for MotorControl
    function.o(i.Over_VoltageCheck) refers to function.o(i.MC_SetFault) for MC_SetFault
    function.o(i.Over_VoltageCheck) refers to function.o(i.MC_ClearFault) for MC_ClearFault
    function.o(i.Over_VoltageCheck) refers to function.o(.bss) for VoltVar
    function.o(i.Over_VoltageCheck) refers to bsp_bdcmotor.o(.bss) for MotorControl
    function.o(i.Push_Motor_Calibrate) refers to stm32f4xx_hal_gpio.o(i.HAL_GPIO_WritePin) for HAL_GPIO_WritePin
    function.o(i.Push_Motor_Calibrate) refers to function.o(i.MC_ClearFault) for MC_ClearFault
    function.o(i.Push_Motor_Calibrate) refers to function.o(i.MC_SetFault1) for MC_SetFault1
    function.o(i.Push_Motor_Calibrate) refers to bsp_bdcmotor.o(.bss) for MotorControl
    function.o(i.Push_Motor_Calibrate) refers to function.o(.bss) for Sys_Ticktemp
    function.o(i.Push_Motor_Calibrate) refers to function.o(i.MC_SetFault) for MC_SetFault
    function.o(i.Push_Motor_Calibrate) refers to main.o(.data) for MotorState
    function.o(i.Push_Motor_Cheek) refers to function.o(i.l_abs) for l_abs
    function.o(i.Push_Motor_Cheek) refers to function.o(i.MC_SetFault1) for MC_SetFault1
    function.o(i.Push_Motor_Cheek) refers to function.o(i.MC_SetFault) for MC_SetFault
    function.o(i.Push_Motor_Cheek) refers to function.o(.bss) for NeedToCheekPush
    function.o(i.Push_Motor_Cheek) refers to bsp_bdcmotor.o(.bss) for MotorControl
    function.o(i.Push_Motor_Cheek) refers to function.o(.data) for PushMaxPulse
    function.o(i.Push_Motor_CurSelfAdapt) refers to function.o(i.f_abs) for f_abs
    function.o(i.Push_Motor_CurSelfAdapt) refers to mc_pid_regulators.o(i.PID_Regulator) for PID_Regulator
    function.o(i.Push_Motor_CurSelfAdapt) refers to bsp_bdcmotor.o(.bss) for MotorControl
    function.o(i.Push_Motor_CurSelfAdapt) refers to function.o(.data) for cur_ratio
    function.o(i.Push_Motor_CurSelfAdapt) refers to mc_pid_regulators.o(.bss) for PID_PWM
    function.o(i.Push_Motor_Location_Control) refers to bsp_bdcmotor.o(.bss) for MotorControl
    function.o(i.Push_OverRunChk) refers to function.o(i.MC_SetFault) for MC_SetFault
    function.o(i.Push_OverRunChk) refers to function.o(i.MC_SetFault1) for MC_SetFault1
    function.o(i.Push_OverRunChk) refers to bsp_bdcmotor.o(.bss) for MotorControl
    function.o(i.Push_OverRunChk) refers to function.o(.data) for timer_cnt
    function.o(i.Voltage_offset_cali) refers to function.o(.data) for offset_cnt
    function.o(i.Voltage_offset_cali) refers to bsp_bdcmotor.o(.bss) for MotorControl
    function.o(i.Voltage_offset_cali) refers to main.o(.bss) for ADC_ConvertedValue
    function.o(i.Voltage_offset_cali) refers to main.o(.data) for MotorState
    mc_pid_regulators.o(i.PID_Init) refers to bsp_bdcmotor.o(.bss) for MotorControl
    mc_pid_regulators.o(i.PID_Regulator) refers to dflti.o(.text) for __aeabi_i2d
    mc_pid_regulators.o(i.PID_Regulator) refers to dmul.o(.text) for __aeabi_dmul
    mc_pid_regulators.o(i.PID_Regulator) refers to cdrcmple.o(.text) for __aeabi_cdrcmple
    mc_pid_regulators.o(i.PID_Regulator) refers to cdcmple.o(.text) for __aeabi_cdcmple
    bsp_bdcmotor.o(i.BLDC1_PhaseChange) refers to function.o(i.MC_SetFault) for MC_SetFault
    bsp_bdcmotor.o(i.BLDC1_PhaseChange) refers to bsp_bdcmotor.o(.bss) for HALL_Study
    bsp_bdcmotor.o(i.BLDC2_PhaseChange) refers to function.o(i.MC_SetFault) for MC_SetFault
    bsp_bdcmotor.o(i.BLDC2_PhaseChange) refers to bsp_bdcmotor.o(.bss) for HALL_Study
    bsp_bdcmotor.o(i.GetMotorSpeed) refers to bsp_bdcmotor.o(.bss) for MotorControl
    bsp_bdcmotor.o(i.GetMotorSpeed) refers to stm32f4xx_it.o(.data) for HALL_OVF_Counter
    bsp_bdcmotor.o(i.HALLSTUDY_PhaseChange0) refers to function.o(i.MC_SetFault) for MC_SetFault
    bsp_bdcmotor.o(i.HALLSTUDY_PhaseChange1) refers to function.o(i.MC_SetFault) for MC_SetFault
    bsp_bdcmotor.o(i.HALL_GetPhase2) refers to stm32f4xx_hal_gpio.o(i.HAL_GPIO_ReadPin) for HAL_GPIO_ReadPin
    bsp_bdcmotor.o(i.HallStudyHandle0) refers to bsp_bdcmotor.o(i.HALLSTUDY_PhaseChange0) for HALLSTUDY_PhaseChange0
    bsp_bdcmotor.o(i.HallStudyHandle0) refers to function.o(i.MC_ClearFault) for MC_ClearFault
    bsp_bdcmotor.o(i.HallStudyHandle0) refers to function.o(i.MC_SetFault) for MC_SetFault
    bsp_bdcmotor.o(i.HallStudyHandle0) refers to bsp_bdcmotor.o(.bss) for HALL_Study
    bsp_bdcmotor.o(i.HallStudyHandle1) refers to bsp_bdcmotor.o(i.HALLSTUDY_PhaseChange1) for HALLSTUDY_PhaseChange1
    bsp_bdcmotor.o(i.HallStudyHandle1) refers to function.o(i.MC_ClearFault) for MC_ClearFault
    bsp_bdcmotor.o(i.HallStudyHandle1) refers to function.o(i.MC_SetFault) for MC_SetFault
    bsp_bdcmotor.o(i.HallStudyHandle1) refers to bsp_bdcmotor.o(.bss) for HALL_Study
    bsp_bdcmotor.o(i.Ramp_PPWM) refers to bsp_bdcmotor.o(.bss) for MotorControl
    bsp_bdcmotor.o(i.Ramp_Speed) refers to bsp_bdcmotor.o(.bss) for MotorControl
    bsp_bdcmotor.o(i.SetMotorDir) refers to stm32f4xx_hal_tim.o(i.HAL_TIM_PWM_Start) for HAL_TIM_PWM_Start
    bsp_bdcmotor.o(i.SetMotorDir) refers to stm32f4xx_hal_tim_ex.o(i.HAL_TIMEx_PWMN_Stop) for HAL_TIMEx_PWMN_Stop
    bsp_bdcmotor.o(i.SetMotorDir) refers to stm32f4xx_hal_tim.o(i.HAL_TIM_PWM_Stop) for HAL_TIM_PWM_Stop
    bsp_bdcmotor.o(i.SetMotorDir) refers to stm32f4xx_hal_tim_ex.o(i.HAL_TIMEx_PWMN_Start) for HAL_TIMEx_PWMN_Start
    bsp_bdcmotor.o(i.SetMotorDir) refers to bsp_bdcmotor.o(.bss) for htimx_BDCMOTOR
    bsp_bdcmotor.o(i.SetMotorSpeed) refers to stm32f4xx_hal_gpio.o(i.HAL_GPIO_WritePin) for HAL_GPIO_WritePin
    bsp_bdcmotor.o(i.SetMotorSpeed) refers to bsp_bdcmotor.o(i.Ramp_PPWM) for Ramp_PPWM
    bsp_bdcmotor.o(i.SetMotorSpeed) refers to bsp_bdcmotor.o(.bss) for MotorControl
    bsp_bdcmotor.o(i.SetMotorSpeed) refers to stm32f4xx_hal_cortex.o(i.HAL_NVIC_DisableIRQ) for HAL_NVIC_DisableIRQ
    bsp_bdcmotor.o(i.SetMotorSpeed) refers to bsp_bdcmotor.o(i.BLDC1_PhaseChange) for BLDC1_PhaseChange
    bsp_bdcmotor.o(i.SetMotorSpeed) refers to stm32f4xx_hal_cortex.o(i.HAL_NVIC_EnableIRQ) for HAL_NVIC_EnableIRQ
    bsp_bdcmotor.o(i.SetMotorSpeed) refers to bsp_bdcmotor.o(i.BLDC2_PhaseChange) for BLDC2_PhaseChange
    bsp_bdcmotor.o(i.SetMotorSpeed) refers to mc_pid_regulators.o(.bss) for PID_Speed_InitStruct
    bsp_bdcmotor.o(i.SetMotorStop) refers to stm32f4xx_hal_gpio.o(i.HAL_GPIO_WritePin) for HAL_GPIO_WritePin
    bsp_bdcmotor.o(i.SetMotorStop) refers to bsp_bdcmotor.o(.bss) for MotorControl
    bsp_bdcmotor.o(i.SetMotorStop) refers to mc_pid_regulators.o(.bss) for PID_Speed_InitStruct
    bsp_bdcmotor.o(i.Suction_motor_errhandle) refers to function.o(i.MC_SetFault1) for MC_SetFault1
    bsp_bdcmotor.o(i.Suction_motor_errhandle) refers to function.o(i.MC_SetFault) for MC_SetFault
    bsp_bdcmotor.o(i.Suction_motor_errhandle) refers to function.o(i.MC_ClearFault) for MC_ClearFault
    bsp_bdcmotor.o(i.Suction_motor_errhandle) refers to bsp_bdcmotor.o(.data) for errcnt
    bsp_bdcmotor.o(i.Suction_motor_errhandle) refers to bsp_bdcmotor.o(.bss) for MotorControl
    bsp_iwdg.o(i.HAL_ADC_LevelOutOfWindowCallback) refers to main.o(.bss) for hadc1
    bsp_iwdg.o(i.MX_IWDG_Init) refers to stm32f4xx_hal_iwdg.o(i.HAL_IWDG_Init) for HAL_IWDG_Init
    bsp_iwdg.o(i.MX_IWDG_Init) refers to bsp_iwdg.o(.bss) for hiwdg
    canopen_od.o(i.CANopen_Parameter_Init) refers to canopen_objacces.o(i._setODentry) for _setODentry
    canopen_od.o(i.CANopen_Parameter_Init) refers to canopen_nmt.o(i.SetNodeId) for SetNodeId
    canopen_od.o(i.CANopen_Parameter_Init) refers to canopen_nmt.o(i.SetState) for SetState
    canopen_od.o(i.CANopen_Parameter_Init) refers to canopen_od.o(.data) for obj2000_sub1
    canopen_od.o(i.CANopen_Parameter_Init) refers to canopen_od.o(.bss) for testStr
    canopen_od.o(i.ODCallback_t_Index2000_Subindex1) refers to printf3.o(i.__0printf$3) for __2printf
    canopen_od.o(i.ODCallback_t_Index2000_Subindex1) refers to canopen_od.o(.conststring) for .conststring
    canopen_od.o(i.ODCallback_t_Index2000_Subindex1) refers to canopen_od.o(.data) for obj2000_sub1
    canopen_od.o(i.ODCallback_t_Index2000_Subindex2) refers to printf3.o(i.__0printf$3) for __2printf
    canopen_od.o(i.ODCallback_t_Index2000_Subindex2) refers to canopen_od.o(.conststring) for .conststring
    canopen_od.o(i.ODCallback_t_Index2000_Subindex2) refers to canopen_od.o(.data) for obj2000_sub2
    canopen_od.o(i.ODCallback_t_Index208A_Subindex0) refers to memcpya.o(.text) for __aeabi_memcpy
    canopen_od.o(i.ObjDict_Get_Id) refers to canopen_od.o(.bss) for testGl
    canopen_od.o(i.ObjDict_scanIndexOD) refers to canopen_od.o(.data) for Index1010_callbacks
    canopen_od.o(i.ObjDict_scanIndexOD) refers to canopen_od.o(.bss) for ObjDict_Index2000_callbacks
    canopen_od.o(i.ObjDict_scanIndexOD) refers to canopen_od.o(.constdata) for pObjDict
    canopen_od.o(.constdata) refers to canopen_od.o(.data) for ObjDict_Index1000
    canopen_od.o(.data) refers to canopen_od.o(i.ODCallback_t_Index1010_Subindex1) for ODCallback_t_Index1010_Subindex1
    canopen_od.o(.data) refers to canopen_lifegrd.o(i.ODCallback_t_Index1016_Subindex) for ODCallback_t_Index1016_Subindex
    canopen_od.o(.data) refers to canopen_pdo.o(i.ODCallback_t_RPDO_Communicate) for ODCallback_t_RPDO_Communicate
    canopen_od.o(.data) refers to canopen_pdo.o(i.ODCallback_t_RPDO_MapSubindex0) for ODCallback_t_RPDO_MapSubindex0
    canopen_od.o(.data) refers to canopen_pdo.o(i.ODCallback_t_RPDO_Map) for ODCallback_t_RPDO_Map
    canopen_od.o(.data) refers to canopen_pdo.o(i.ODCallback_t_TPDO_Communicate) for ODCallback_t_TPDO_Communicate
    canopen_od.o(.data) refers to canopen_pdo.o(i.ODCallback_t_TPDO_MapSubindex0) for ODCallback_t_TPDO_MapSubindex0
    canopen_od.o(.data) refers to canopen_pdo.o(i.ODCallback_t_TPDO_Map) for ODCallback_t_TPDO_Map
    canopen_od.o(.data) refers to bsp_bdcmotor.o(.bss) for MotorControl
    canopen_od.o(.data) refers to function.o(.bss) for VoltVar
    canopen_od.o(.data) refers to canopen_od.o(i.ODCallback_t_Index2098_Subindex0) for ODCallback_t_Index2098_Subindex0
    canopen_od.o(.data) refers to canopen_od.o(i.ODCallback_t_Index2099_Subindex0) for ODCallback_t_Index2099_Subindex0
    canopen_od.o(.data) refers to main.o(.data) for enableallmotor
    canopen_od.o(.data) refers to main.o(.bss) for ProgramVersion
    canopen_od.o(.data) refers to mc_pid_regulators.o(.bss) for PID_Speed_InitStruct
    canopen_od.o(.data) refers to function.o(.data) for wGlobal_Flags
    canopen_od.o(.data) refers to agreement.o(.data) for Flash_Writesign
    canopen_od.o(.data) refers to canopen_od.o(.bss) for test111
    canopen_od.o(.data) refers to canopen_nmt.o(i._initialisation) for _initialisation
    canopen_od.o(.data) refers to canopen_nmt.o(i._preOperational) for _preOperational
    canopen_od.o(.data) refers to canopen_nmt.o(i._operational) for _operational
    canopen_od.o(.data) refers to canopen_lifegrd.o(i._heartbeatError) for _heartbeatError
    canopen_od.o(.data) refers to canopen_lifegrd.o(i._post_SlaveStateChange) for _post_SlaveStateChange
    canopen_od.o(.data) refers to canopen_od.o(.constdata) for pObjDict
    canopen_od.o(.data) refers to canopen_od.o(i.ObjDict_scanIndexOD) for ObjDict_scanIndexOD
    canopen_od.o(.data) refers to canopen_od.o(i.ObjDict_valueRangeTest) for ObjDict_valueRangeTest
    canopen_od.o(.data) refers to canopen_od.o(i._storeODSubIndex) for _storeODSubIndex
    canopen_od.o(.data) refers to canopen_pdo.o(i._RxPDO_EventTimers_Handler) for _RxPDO_EventTimers_Handler
    canopen_od.o(.data) refers to canopen_sync.o(i._post_sync) for _post_sync
    canopen_od.o(.data) refers to canopen_sync.o(i._post_TPDO) for _post_TPDO
    canopen_timer.o(i.Callbacktest) refers to main.o(i.CAN1_Send_Msg) for CAN1_Send_Msg
    canopen_timer.o(i.Callbacktest1) refers to main.o(i.CAN1_Send_Msg) for CAN1_Send_Msg
    canopen_timer.o(i.Callbacktest2) refers to main.o(i.CAN1_Send_Msg) for CAN1_Send_Msg
    canopen_timer.o(i.DelAlarm) refers to canopen_timer.o(.data) for last_timer_raw
    canopen_timer.o(i.DelAlarm) refers to canopen_timer.o(.bss) for timers
    canopen_timer.o(i.SetAlarm) refers to canopen_timer.o(i.getElapsedTime) for getElapsedTime
    canopen_timer.o(i.SetAlarm) refers to canopen_timer.o(i.setTimer) for setTimer
    canopen_timer.o(i.SetAlarm) refers to canopen_timer.o(.bss) for timers
    canopen_timer.o(i.SetAlarm) refers to canopen_timer.o(.data) for last_timer_raw
    canopen_timer.o(i.TIM6_DAC_IRQHandler) refers to canopen_timer.o(i.TimerForCan) for TimerForCan
    canopen_timer.o(i.TIM6_Init) refers to stm32f4xx_hal_tim.o(i.HAL_TIM_Base_Init) for HAL_TIM_Base_Init
    canopen_timer.o(i.TIM6_Init) refers to stm32f4xx_hal_tim.o(i.HAL_TIM_ConfigClockSource) for HAL_TIM_ConfigClockSource
    canopen_timer.o(i.TIM6_Init) refers to stm32f4xx_hal_tim_ex.o(i.HAL_TIMEx_MasterConfigSynchronization) for HAL_TIMEx_MasterConfigSynchronization
    canopen_timer.o(i.TIM6_Init) refers to stm32f4xx_hal_tim.o(i.HAL_TIM_Base_Start_IT) for HAL_TIM_Base_Start_IT
    canopen_timer.o(i.TIM6_Init) refers to canopen_timer.o(.bss) for TIM6_Handler
    canopen_timer.o(i.TimeDispatch) refers to canopen_timer.o(i.getElapsedTime) for getElapsedTime
    canopen_timer.o(i.TimeDispatch) refers to canopen_timer.o(i.setTimer) for setTimer
    canopen_timer.o(i.TimeDispatch) refers to canopen_timer.o(.data) for total_sleep_time
    canopen_timer.o(i.TimeDispatch) refers to canopen_timer.o(.bss) for timers
    canopen_timer.o(i.TimerForCan) refers to canopen_timer.o(i.TimeDispatch) for TimeDispatch
    canopen_timer.o(i.TimerForCan) refers to canopen_timer.o(.data) for TimeCNT
    canopen_timer.o(i.getElapsedTime) refers to canopen_timer.o(.data) for TimeCNT
    canopen_timer.o(i.setTimer) refers to canopen_timer.o(.data) for TimeCNT
    flash.o(i.Erase_Flash) refers to stm32f4xx_hal_flash.o(i.HAL_FLASH_Unlock) for HAL_FLASH_Unlock
    flash.o(i.Erase_Flash) refers to stm32f4xx_hal_flash_ex.o(i.HAL_FLASHEx_Erase) for HAL_FLASHEx_Erase
    flash.o(i.Erase_Flash) refers to stm32f4xx_hal_flash.o(i.HAL_FLASH_Lock) for HAL_FLASH_Lock
    flash.o(i.Erase_Flash) refers to flash.o(.bss) for EraseInitStruct
    flash.o(i.Erase_Flash) refers to flash.o(.data) for SectorError
    flash.o(i.Flash_Read) refers to agreement.o(.constdata) for PARAMETER
    flash.o(i.InternalFlash) refers to stm32f4xx_hal_flash.o(i.HAL_FLASH_Unlock) for HAL_FLASH_Unlock
    flash.o(i.InternalFlash) refers to flash.o(i.GetSector) for GetSector
    flash.o(i.InternalFlash) refers to stm32f4xx_hal_flash_ex.o(i.HAL_FLASHEx_Erase) for HAL_FLASHEx_Erase
    flash.o(i.InternalFlash) refers to flash.o(i.WriteData_toFlash) for WriteData_toFlash
    flash.o(i.InternalFlash) refers to stm32f4xx_hal_flash.o(i.HAL_FLASH_Lock) for HAL_FLASH_Lock
    flash.o(i.InternalFlash) refers to flash.o(.data) for FirstSector
    flash.o(i.InternalFlash) refers to flash.o(.bss) for EraseInitStruct
    flash.o(i.InternalFlash) refers to agreement.o(.constdata) for PARAMETER
    flash.o(i.WriteData_toFlash) refers to stm32f4xx_hal_flash.o(i.HAL_FLASH_Program) for HAL_FLASH_Program
    agreement.o(i.Agreement_fun3) refers to agreement.o(i.CheckSum) for CheckSum
    agreement.o(i.Agreement_fun3) refers to stm32f4xx_hal_uart.o(i.HAL_UART_Transmit) for HAL_UART_Transmit
    agreement.o(i.Agreement_fun3) refers to agreement.o(.bss) for SendBuf
    agreement.o(i.Agreement_fun3) refers to agreement.o(.constdata) for PARAMETER
    agreement.o(i.Agreement_fun3) refers to main.o(.bss) for huart3
    agreement.o(i.Agreement_funEF) refers to agreement.o(i.CheckSum) for CheckSum
    agreement.o(i.Agreement_funEF) refers to stm32f4xx_hal_uart.o(i.HAL_UART_Transmit) for HAL_UART_Transmit
    agreement.o(i.Agreement_funEF) refers to agreement.o(.bss) for SendBuf
    agreement.o(i.Agreement_funEF) refers to agreement.o(.constdata) for PARAMETER
    agreement.o(i.Agreement_funEF) refers to main.o(.bss) for huart3
    agreement.o(i.Agreement_funF1) refers to agreement.o(i.CheckSum) for CheckSum
    agreement.o(i.Agreement_funF1) refers to stm32f4xx_hal_uart.o(i.HAL_UART_Transmit) for HAL_UART_Transmit
    agreement.o(i.Agreement_funF1) refers to agreement.o(.bss) for SendBuf
    agreement.o(i.Agreement_funF1) refers to agreement.o(.constdata) for PARAMETER
    agreement.o(i.Agreement_funF1) refers to main.o(.bss) for huart3
    agreement.o(i.Agreement_funF2) refers to agreement.o(i.CheckSum) for CheckSum
    agreement.o(i.Agreement_funF2) refers to stm32f4xx_hal_uart.o(i.HAL_UART_Transmit) for HAL_UART_Transmit
    agreement.o(i.Agreement_funF2) refers to agreement.o(.bss) for SendBuf
    agreement.o(i.Agreement_funF2) refers to agreement.o(.constdata) for PARAMETER
    agreement.o(i.Agreement_funF2) refers to main.o(.bss) for huart3
    agreement.o(i.Agreement_funF3) refers to agreement.o(i.CheckSum) for CheckSum
    agreement.o(i.Agreement_funF3) refers to stm32f4xx_hal_uart.o(i.HAL_UART_Transmit) for HAL_UART_Transmit
    agreement.o(i.Agreement_funF3) refers to agreement.o(.bss) for SendBuf
    agreement.o(i.Agreement_funF3) refers to agreement.o(.constdata) for PARAMETER
    agreement.o(i.Agreement_funF3) refers to main.o(.bss) for huart3
    agreement.o(i.Agreement_funF4) refers to agreement.o(i.CheckSum) for CheckSum
    agreement.o(i.Agreement_funF4) refers to stm32f4xx_hal_uart.o(i.HAL_UART_Transmit) for HAL_UART_Transmit
    agreement.o(i.Agreement_funF4) refers to agreement.o(.bss) for SendBuf
    agreement.o(i.Agreement_funF4) refers to agreement.o(.constdata) for PARAMETER
    agreement.o(i.Agreement_funF4) refers to main.o(.bss) for huart3
    agreement.o(i.FlashRight) refers to stm32f4xx_hal_uart.o(i.HAL_UART_Transmit) for HAL_UART_Transmit
    agreement.o(i.FlashRight) refers to agreement.o(.data) for SendBuf3
    agreement.o(i.FlashRight) refers to main.o(.bss) for huart3
    agreement.o(i.Flash_WriteCheck) refers to flash.o(i.InternalFlash) for InternalFlash
    agreement.o(i.Flash_WriteCheck) refers to agreement.o(.data) for Flash_Writesign
    agreement.o(i.Flash_WriteCheck) refers to agreement.o(.bss) for transbuf
    agreement.o(i.MX_USART3_UART_Init) refers to stm32f4xx_hal_uart.o(i.HAL_UART_Init) for HAL_UART_Init
    agreement.o(i.MX_USART3_UART_Init) refers to main.o(i.Error_Handler) for Error_Handler
    agreement.o(i.MX_USART3_UART_Init) refers to main.o(.bss) for huart3
    agreement.o(i.QuickRead) refers to agreement.o(i.changestartstop) for changestartstop
    agreement.o(i.QuickRead) refers to agreement.o(i.CheckSum) for CheckSum
    agreement.o(i.QuickRead) refers to agreement.o(i.Agreement_funEF) for Agreement_funEF
    agreement.o(i.QuickRead) refers to agreement.o(i.Agreement_funF2) for Agreement_funF2
    agreement.o(i.QuickRead) refers to agreement.o(i.Agreement_funF1) for Agreement_funF1
    agreement.o(i.QuickRead) refers to agreement.o(i.Agreement_funF3) for Agreement_funF3
    agreement.o(i.QuickRead) refers to agreement.o(i.Agreement_funF4) for Agreement_funF4
    agreement.o(i.QuickRead) refers to agreement.o(.bss) for aRxBuffer1
    agreement.o(i.QuickRead) refers to agreement.o(.data) for SendFlag
    agreement.o(i.ReturnError1) refers to agreement.o(i.CheckSum) for CheckSum
    agreement.o(i.ReturnError1) refers to stm32f4xx_hal_uart.o(i.HAL_UART_Transmit) for HAL_UART_Transmit
    agreement.o(i.ReturnError1) refers to function.o(.data) for wGlobal_Flags
    agreement.o(i.ReturnError1) refers to agreement.o(.data) for ErrTime1
    agreement.o(i.ReturnError1) refers to main.o(.bss) for huart3
    agreement.o(i.ReturnError1) refers to bsp_bdcmotor.o(.bss) for MotorControl
    agreement.o(i.ReturnRight) refers to stm32f4xx_hal_uart.o(i.HAL_UART_Transmit) for HAL_UART_Transmit
    agreement.o(i.ReturnRight) refers to agreement.o(.data) for SendBuf1
    agreement.o(i.ReturnRight) refers to main.o(.bss) for huart3
    agreement.o(i.Startagreement) refers to agreement.o(i.changestartstop) for changestartstop
    agreement.o(i.Startagreement) refers to agreement.o(i.CheckSum) for CheckSum
    agreement.o(i.Startagreement) refers to agreement.o(i.Agreement_fun3) for Agreement_fun3
    agreement.o(i.Startagreement) refers to agreement.o(i.ReturnRight) for ReturnRight
    agreement.o(i.Startagreement) refers to flash.o(i.InternalFlash) for InternalFlash
    agreement.o(i.Startagreement) refers to agreement.o(i.FlashRight) for FlashRight
    agreement.o(i.Startagreement) refers to agreement.o(.data) for reflag
    agreement.o(i.Startagreement) refers to agreement.o(.bss) for aRxBuffer1
    agreement.o(i.Startagreement) refers to agreement.o(.constdata) for PARAMETER
    agreement.o(i.changestartstop) refers to agreement.o(.data) for SendFlag
    agreement.o(i.changestartstop) refers to bsp_bdcmotor.o(.bss) for MotorControl
    agreement.o(i.changestartstop) refers to agreement.o(.bss) for transbuf
    agreement.o(i.changestartstop) refers to function.o(.bss) for VoltVar
    agreement.o(i.changestartstop) refers to mc_pid_regulators.o(.bss) for PID_Speed_InitStruct
    agreement.o(i.changestartstop) refers to main.o(.data) for Push_motor_calibrationFLAG
    agreement.o(i.changestartstop) refers to function.o(.data) for wGlobal_Flags
    agreement.o(i.changestartstop) refers to main.o(.bss) for Err_codeHis
    agreement.o(.constdata) refers to agreement.o(.bss) for transbuf
    canopen_lifegrd.o(i.HeartBeat_Message_Handle) refers to main.o(i.CAN1_Send_Msg) for CAN1_Send_Msg
    canopen_lifegrd.o(i.HeartBeat_Message_Handle) refers to canopen_timer.o(i.DelAlarm) for DelAlarm
    canopen_lifegrd.o(i.HeartBeat_Message_Handle) refers to canopen_timer.o(i.SetAlarm) for SetAlarm
    canopen_lifegrd.o(i.HeartBeat_Message_Handle) refers to canopen_od.o(.data) for pHeartBeatPar
    canopen_lifegrd.o(i.HeartBeat_Message_Handle) refers to canopen_lifegrd.o(i.ConsumerHeartbeatAlarm) for ConsumerHeartbeatAlarm
    canopen_lifegrd.o(i.ODCallback_t_Index1016_Subindex) refers to memcpya.o(.text) for __aeabi_memcpy
    canopen_lifegrd.o(i.OnHeartbeatProducerUpdate) refers to canopen_lifegrd.o(i.heartbeatStop) for heartbeatStop
    canopen_lifegrd.o(i.OnHeartbeatProducerUpdate) refers to canopen_lifegrd.o(i.heartbeatInit) for heartbeatInit
    canopen_lifegrd.o(i.ProducerHeartbeatAlarm) refers to main.o(i.CAN1_Send_Msg) for CAN1_Send_Msg
    canopen_lifegrd.o(i.ProducerHeartbeatAlarm) refers to canopen_timer.o(i.DelAlarm) for DelAlarm
    canopen_lifegrd.o(i.ProducerHeartbeatAlarm) refers to canopen_od.o(.data) for pHeartBeatPar
    canopen_lifegrd.o(i._heartbeatError) refers to function.o(i.MC_SetFault) for MC_SetFault
    canopen_lifegrd.o(i._heartbeatError) refers to bsp_bdcmotor.o(i.SetMotorStop) for SetMotorStop
    canopen_lifegrd.o(i._heartbeatError) refers to bsp_bdcmotor.o(.bss) for MotorControl
    canopen_lifegrd.o(i._heartbeatError) refers to main.o(.data) for MotorState
    canopen_lifegrd.o(i.heartbeatInit) refers to canopen_objacces.o(i.RegisterSetOnDentry_Callback) for RegisterSetOnDentry_Callback
    canopen_lifegrd.o(i.heartbeatInit) refers to canopen_timer.o(i.SetAlarm) for SetAlarm
    canopen_lifegrd.o(i.heartbeatInit) refers to canopen_lifegrd.o(i.OnHeartbeatProducerUpdate) for OnHeartbeatProducerUpdate
    canopen_lifegrd.o(i.heartbeatInit) refers to canopen_od.o(.data) for pHeartBeatPar
    canopen_lifegrd.o(i.heartbeatInit) refers to canopen_lifegrd.o(i.ProducerHeartbeatAlarm) for ProducerHeartbeatAlarm
    canopen_lifegrd.o(i.heartbeatStop) refers to canopen_timer.o(i.DelAlarm) for DelAlarm
    canopen_lifegrd.o(i.heartbeatStop) refers to canopen_od.o(.data) for pHeartBeatPar
    canopen_lifegrd.o(i.lifeGuardInit) refers to canopen_lifegrd.o(i.heartbeatInit) for heartbeatInit
    canopen_lifegrd.o(i.lifeGuardStop) refers to canopen_lifegrd.o(i.heartbeatStop) for heartbeatStop
    canopen_nmt.o(i.MessageType_Check) refers to canopen_nmt.o(i.Net_Manager_Handle) for Net_Manager_Handle
    canopen_nmt.o(i.MessageType_Check) refers to canopen_sync.o(i.proceedSYNC) for proceedSYNC
    canopen_nmt.o(i.MessageType_Check) refers to canopen_pdo.o(i.proceedPDO) for proceedPDO
    canopen_nmt.o(i.MessageType_Check) refers to canopen_sdo.o(i.SDO_Email_Handler) for SDO_Email_Handler
    canopen_nmt.o(i.MessageType_Check) refers to canopen_lifegrd.o(i.HeartBeat_Message_Handle) for HeartBeat_Message_Handle
    canopen_nmt.o(i.Net_Manager_Handle) refers to canopen_nmt.o(i.SetState) for SetState
    canopen_nmt.o(i.Net_Manager_Handle) refers to canopen_nmt.o(i.getNodeId) for getNodeId
    canopen_nmt.o(i.Net_Manager_Handle) refers to canopen_nmt.o(i.SetNodeId) for SetNodeId
    canopen_nmt.o(i.SendBootUp) refers to main.o(i.CAN1_Send_Msg) for CAN1_Send_Msg
    canopen_nmt.o(i.SetNodeId) refers to canopen_nmt.o(.constdata) for .constdata
    canopen_nmt.o(i.SetState) refers to canopen_nmt.o(i.SwitchCommunication_State) for SwitchCommunication_State
    canopen_nmt.o(i.SetState) refers to canopen_nmt.o(.constdata) for .constdata
    canopen_nmt.o(i.SwitchCommunication_State) refers to canopen_nmt.o(i.SendBootUp) for SendBootUp
    canopen_nmt.o(i.SwitchCommunication_State) refers to canopen_sdo.o(i.resetSDO) for resetSDO
    canopen_nmt.o(i.SwitchCommunication_State) refers to canopen_emcy.o(i.emergencyInit) for emergencyInit
    canopen_nmt.o(i.SwitchCommunication_State) refers to canopen_emcy.o(i.emergencyStop) for emergencyStop
    canopen_nmt.o(i.SwitchCommunication_State) refers to canopen_sync.o(i.StopSync) for StopSync
    canopen_nmt.o(i.SwitchCommunication_State) refers to canopen_lifegrd.o(i.lifeGuardInit) for lifeGuardInit
    canopen_nmt.o(i.SwitchCommunication_State) refers to canopen_lifegrd.o(i.lifeGuardStop) for lifeGuardStop
    canopen_nmt.o(i.SwitchCommunication_State) refers to canopen_pdo.o(i.PDOStop) for PDOStop
    canopen_nmt.o(i.SwitchCommunication_State) refers to canopen_pdo.o(i.PDOInit) for PDOInit
    canopen_objacces.o(i.OBJ_Access_Err_Record) refers to printf3.o(i.__0printf$3) for __2printf
    canopen_objacces.o(i.RegisterSetOnDentry_Callback) refers to canopen_objacces.o(i.OD_Index_san) for OD_Index_san
    canopen_objacces.o(i._getODentry) refers to memcpya.o(.text) for __aeabi_memcpy
    canopen_objacces.o(i._getODentry) refers to canopen_od.o(.data) for RS232_OD_SIGN
    canopen_objacces.o(i._setODentry) refers to memcpya.o(.text) for __aeabi_memcpy
    canopen_objacces.o(i._setODentry) refers to canopen_od.o(.data) for RS232_OD_SIGN
    canopen_pdo.o(i.ODCallback_t_RPDO_Communicate) refers to memcpya.o(.text) for __aeabi_memcpy
    canopen_pdo.o(i.ODCallback_t_RPDO_Map) refers to memcpya.o(.text) for __aeabi_memcpy
    canopen_pdo.o(i.ODCallback_t_RPDO_Map) refers to canopen_od.o(i.ObjDict_Get_Id) for ObjDict_Get_Id
    canopen_pdo.o(i.ODCallback_t_RPDO_Map) refers to canopen_od.o(.bss) for pRpdoDirectPar
    canopen_pdo.o(i.ODCallback_t_RPDO_MapSubindex0) refers to memcpya.o(.text) for __aeabi_memcpy
    canopen_pdo.o(i.ODCallback_t_TPDO_Communicate) refers to memcpya.o(.text) for __aeabi_memcpy
    canopen_pdo.o(i.ODCallback_t_TPDO_Communicate) refers to canopen_timer.o(i.DelAlarm) for DelAlarm
    canopen_pdo.o(i.ODCallback_t_TPDO_Communicate) refers to canopen_pdo.o(i.PDOEventTimerAlarm) for PDOEventTimerAlarm
    canopen_pdo.o(i.ODCallback_t_TPDO_Map) refers to memcpya.o(.text) for __aeabi_memcpy
    canopen_pdo.o(i.ODCallback_t_TPDO_Map) refers to canopen_od.o(i.ObjDict_Get_Id) for ObjDict_Get_Id
    canopen_pdo.o(i.ODCallback_t_TPDO_MapSubindex0) refers to memcpya.o(.text) for __aeabi_memcpy
    canopen_pdo.o(i.PDOEventTimerAlarm) refers to canopen_pdo.o(i.sendOnePDOevent) for sendOnePDOevent
    canopen_pdo.o(i.PDOInhibitTimerAlarm) refers to canopen_pdo.o(i.sendOnePDOevent) for sendOnePDOevent
    canopen_pdo.o(i.PDOInit) refers to canopen_objacces.o(i.OD_Index_san) for OD_Index_san
    canopen_pdo.o(i.PDOInit) refers to canopen_pdo.o(i.RPDO_Direct_Trans_Init) for RPDO_Direct_Trans_Init
    canopen_pdo.o(i.PDOInit) refers to canopen_pdo.o(i._sendPDOevent) for _sendPDOevent
    canopen_pdo.o(i.PDOInit) refers to canopen_od.o(.bss) for pRpdoDirectPar
    canopen_pdo.o(i.PDOStop) refers to canopen_timer.o(i.DelAlarm) for DelAlarm
    canopen_pdo.o(i.RPDO_Direct_SetODentry) refers to memcpya.o(.text) for __aeabi_memcpy
    canopen_pdo.o(i.RPDO_Direct_Trans_Init) refers to canopen_od.o(i.ObjDict_Get_Id) for ObjDict_Get_Id
    canopen_pdo.o(i.TPDO_Communication_Parameter_Callback) refers to canopen_timer.o(i.DelAlarm) for DelAlarm
    canopen_pdo.o(i.TPDO_Communication_Parameter_Callback) refers to canopen_pdo.o(i.PDOEventTimerAlarm) for PDOEventTimerAlarm
    canopen_pdo.o(i._RPOD_SyncEvent) refers to canopen_pdo.o(i.CopyBits) for CopyBits
    canopen_pdo.o(i._RPOD_SyncEvent) refers to canopen_pdo.o(i.RPDO_Direct_SetODentry) for RPDO_Direct_SetODentry
    canopen_pdo.o(i._RPOD_SyncEvent) refers to canopen_od.o(.bss) for pRpdoDirectPar
    canopen_pdo.o(i._sendPDOevent) refers to memseta.o(.text) for __aeabi_memclr4
    canopen_pdo.o(i._sendPDOevent) refers to canopen_pdo.o(i.buildPDO) for buildPDO
    canopen_pdo.o(i._sendPDOevent) refers to canopen_pdo.o(i.sendOnePDOevent) for sendOnePDOevent
    canopen_pdo.o(i._sendPDOevent) refers to canopen_pdo.o(i.sendPdo) for sendPdo
    canopen_pdo.o(i.buildPDO) refers to canopen_objacces.o(i._getODentry) for _getODentry
    canopen_pdo.o(i.buildPDO) refers to canopen_pdo.o(i.CopyBits) for CopyBits
    canopen_pdo.o(i.proceedPDO) refers to memcmp.o(.text) for memcmp
    canopen_pdo.o(i.proceedPDO) refers to memcpya.o(.text) for __aeabi_memcpy4
    canopen_pdo.o(i.proceedPDO) refers to canopen_pdo.o(i.CopyBits) for CopyBits
    canopen_pdo.o(i.proceedPDO) refers to canopen_pdo.o(i.RPDO_Direct_SetODentry) for RPDO_Direct_SetODentry
    canopen_pdo.o(i.proceedPDO) refers to canopen_timer.o(i.DelAlarm) for DelAlarm
    canopen_pdo.o(i.proceedPDO) refers to canopen_timer.o(i.SetAlarm) for SetAlarm
    canopen_pdo.o(i.proceedPDO) refers to main.o(i.CAN1_Send_Msg) for CAN1_Send_Msg
    canopen_pdo.o(i.proceedPDO) refers to canopen_pdo.o(i.PDOEventTimerAlarm) for PDOEventTimerAlarm
    canopen_pdo.o(i.proceedPDO) refers to canopen_pdo.o(i.buildPDO) for buildPDO
    canopen_pdo.o(i.proceedPDO) refers to canopen_od.o(.bss) for testGl
    canopen_pdo.o(i.sendOnePDOevent) refers to memseta.o(.text) for __aeabi_memclr4
    canopen_pdo.o(i.sendOnePDOevent) refers to canopen_pdo.o(i.buildPDO) for buildPDO
    canopen_pdo.o(i.sendOnePDOevent) refers to memcmp.o(.text) for memcmp
    canopen_pdo.o(i.sendOnePDOevent) refers to canopen_timer.o(i.DelAlarm) for DelAlarm
    canopen_pdo.o(i.sendOnePDOevent) refers to canopen_timer.o(i.SetAlarm) for SetAlarm
    canopen_pdo.o(i.sendOnePDOevent) refers to canopen_pdo.o(i.sendPdo) for sendPdo
    canopen_pdo.o(i.sendOnePDOevent) refers to canopen_pdo.o(i.PDOEventTimerAlarm) for PDOEventTimerAlarm
    canopen_pdo.o(i.sendOnePDOevent) refers to canopen_pdo.o(i.PDOInhibitTimerAlarm) for PDOInhibitTimerAlarm
    canopen_pdo.o(i.sendPDOevent) refers to canopen_pdo.o(i._sendPDOevent) for _sendPDOevent
    canopen_pdo.o(i.sendPDOevent) refers to canopen_od.o(.bss) for pRpdoDirectPar
    canopen_pdo.o(i.sendPDOrequest) refers to main.o(i.CAN1_Send_Msg) for CAN1_Send_Msg
    canopen_pdo.o(i.sendPdo) refers to memcpya.o(.text) for __aeabi_memcpy4
    canopen_pdo.o(i.sendPdo) refers to main.o(i.CAN1_Send_Msg) for CAN1_Send_Msg
    canopen_sync.o(i.StopSync) refers to canopen_objacces.o(i.RegisterSetOnDentry_Callback) for RegisterSetOnDentry_Callback
    canopen_sync.o(i.StopSync) refers to canopen_od.o(.data) for CANopen_Drive
    canopen_sync.o(i.proceedSYNC) refers to canopen_pdo.o(i._sendPDOevent) for _sendPDOevent
    canopen_sync.o(i.proceedSYNC) refers to canopen_od.o(.data) for RPDO_SYNC_SIGN
    canopen_sync.o(i.proceedSYNC) refers to canopen_od.o(.bss) for pRpdoDirectPar
    canopen_emcy.o(i.EMCY_errorRecovered) refers to canopen_emcy.o(i.EmcyMsg_TransSet) for EmcyMsg_TransSet
    canopen_emcy.o(i.EMCY_errorRecovered) refers to canopen_od.o(.data) for EmcyTransData
    canopen_emcy.o(i.EMCY_setError) refers to canopen_emcy.o(i.SendEmcy) for SendEmcy
    canopen_emcy.o(i.EmcyMsg_TransREQ) refers to canopen_emcy.o(i.EMCY_setError) for EMCY_setError
    canopen_emcy.o(i.EmcyMsg_TransREQ) refers to canopen_emcy.o(i.SendEmcy) for SendEmcy
    canopen_emcy.o(i.SendEmcy) refers to memcpya.o(.text) for __aeabi_memcpy
    canopen_emcy.o(i.SendEmcy) refers to main.o(i.CAN1_Send_Msg) for CAN1_Send_Msg
    canopen_emcy.o(i.emergencyInit) refers to canopen_objacces.o(i.RegisterSetOnDentry_Callback) for RegisterSetOnDentry_Callback
    canopen_emcy.o(i.emergencyInit) refers to canopen_emcy.o(i.OnNumberOfErrorsUpdate) for OnNumberOfErrorsUpdate
    canopen_sdo.o(i.SDOTimeoutAlarm) refers to canopen_sdo.o(i.SDO_Err_Record) for SDO_Err_Record
    canopen_sdo.o(i.SDOTimeoutAlarm) refers to canopen_sdo.o(i.resetSDOline) for resetSDOline
    canopen_sdo.o(i.SDO_Email_Handler) refers to printf3.o(i.__0printf$3) for __2printf
    canopen_sdo.o(i.SDO_Email_Handler) refers to canopen_sdo.o(i.failedSDO) for failedSDO
    canopen_sdo.o(i.SDO_Email_Handler) refers to canopen_sdo.o(i.getSDOlineOnUse) for getSDOlineOnUse
    canopen_sdo.o(i.SDO_Email_Handler) refers to canopen_timer.o(i.DelAlarm) for DelAlarm
    canopen_sdo.o(i.SDO_Email_Handler) refers to canopen_timer.o(i.SetAlarm) for SetAlarm
    canopen_sdo.o(i.SDO_Email_Handler) refers to canopen_sdo.o(i.SDOtoLine) for SDOtoLine
    canopen_sdo.o(i.SDO_Email_Handler) refers to canopen_sdo.o(i.SendSDO) for SendSDO
    canopen_sdo.o(i.SDO_Email_Handler) refers to canopen_sdo.o(i.SDOlineToObjdict) for SDOlineToObjdict
    canopen_sdo.o(i.SDO_Email_Handler) refers to canopen_sdo.o(i.resetSDOline) for resetSDOline
    canopen_sdo.o(i.SDO_Email_Handler) refers to canopen_sdo.o(i.getSDOfreeLine) for getSDOfreeLine
    canopen_sdo.o(i.SDO_Email_Handler) refers to canopen_sdo.o(i.initSDOline) for initSDOline
    canopen_sdo.o(i.SDO_Email_Handler) refers to canopen_sdo.o(i.setSDOlineRestBytes) for setSDOlineRestBytes
    canopen_sdo.o(i.SDO_Email_Handler) refers to canopen_sdo.o(i.SDOTimeoutAlarm) for SDOTimeoutAlarm
    canopen_sdo.o(i.SDO_Email_Handler) refers to canopen_sdo.o(i.objdictToSDOline) for objdictToSDOline
    canopen_sdo.o(i.SDO_Email_Handler) refers to canopen_sdo.o(i.getSDOlineRestBytes) for getSDOlineRestBytes
    canopen_sdo.o(i.SDO_Email_Handler) refers to canopen_sdo.o(i.lineToSDO) for lineToSDO
    canopen_sdo.o(i.SDO_Err_Record) refers to canopen_sdo.o(i.SendSDO) for SendSDO
    canopen_sdo.o(i.SDOlineToObjdict) refers to canopen_objacces.o(i._setODentry) for _setODentry
    canopen_sdo.o(i.SendSDO) refers to main.o(i.CAN1_Send_Msg) for CAN1_Send_Msg
    canopen_sdo.o(i.failedSDO) refers to canopen_sdo.o(i.getSDOlineOnUse) for getSDOlineOnUse
    canopen_sdo.o(i.failedSDO) refers to canopen_sdo.o(i.resetSDOline) for resetSDOline
    canopen_sdo.o(i.failedSDO) refers to canopen_timer.o(i.DelAlarm) for DelAlarm
    canopen_sdo.o(i.failedSDO) refers to canopen_sdo.o(i.SDO_Err_Record) for SDO_Err_Record
    canopen_sdo.o(i.initSDOline) refers to canopen_timer.o(i.DelAlarm) for DelAlarm
    canopen_sdo.o(i.initSDOline) refers to canopen_timer.o(i.SetAlarm) for SetAlarm
    canopen_sdo.o(i.initSDOline) refers to canopen_sdo.o(i.SDOTimeoutAlarm) for SDOTimeoutAlarm
    canopen_sdo.o(i.objdictToSDOline) refers to canopen_objacces.o(i._getODentry) for _getODentry
    canopen_sdo.o(i.resetSDO) refers to canopen_sdo.o(i.resetSDOline) for resetSDOline
    canopen_sdo.o(i.resetSDOline) refers to canopen_sdo.o(i.initSDOline) for initSDOline
    entry.o(.ARM.Collect$$$$00000000) refers (Special) to entry10a.o(.ARM.Collect$$$$0000000D) for __rt_final_cpp
    entry.o(.ARM.Collect$$$$00000000) refers (Special) to entry11a.o(.ARM.Collect$$$$0000000F) for __rt_final_exit
    entry.o(.ARM.Collect$$$$00000000) refers (Special) to entry7b.o(.ARM.Collect$$$$00000008) for _main_clock
    entry.o(.ARM.Collect$$$$00000000) refers (Special) to entry8b.o(.ARM.Collect$$$$0000000A) for _main_cpp_init
    entry.o(.ARM.Collect$$$$00000000) refers (Special) to entry9a.o(.ARM.Collect$$$$0000000B) for _main_init
    entry.o(.ARM.Collect$$$$00000000) refers (Special) to entry5.o(.ARM.Collect$$$$00000004) for _main_scatterload
    entry.o(.ARM.Collect$$$$00000000) refers (Special) to entry2.o(.ARM.Collect$$$$00000001) for _main_stk
    uldiv.o(.text) refers to llushr.o(.text) for __aeabi_llsr
    uldiv.o(.text) refers to llshl.o(.text) for __aeabi_llsl
    printfb.o(i.__0fprintf$bare) refers to printfb.o(i._printf_core) for _printf_core
    printfb.o(i.__0fprintf$bare) refers to main.o(i.fputc) for fputc
    printfb.o(i.__0printf$bare) refers to printfb.o(i._printf_core) for _printf_core
    printfb.o(i.__0printf$bare) refers to main.o(i.fputc) for fputc
    printfb.o(i.__0printf$bare) refers to stdout.o(.data) for __stdout
    printfb.o(i.__0snprintf$bare) refers to printfb.o(i._printf_core) for _printf_core
    printfb.o(i.__0snprintf$bare) refers to printfb.o(i._snputc) for _snputc
    printfb.o(i.__0sprintf$bare) refers to printfb.o(i._printf_core) for _printf_core
    printfb.o(i.__0sprintf$bare) refers to printfb.o(i._sputc) for _sputc
    printfb.o(i.__0vfprintf$bare) refers to printfb.o(i._printf_core) for _printf_core
    printfb.o(i.__0vfprintf$bare) refers to main.o(i.fputc) for fputc
    printfb.o(i.__0vprintf$bare) refers to printfb.o(i._printf_core) for _printf_core
    printfb.o(i.__0vprintf$bare) refers to main.o(i.fputc) for fputc
    printfb.o(i.__0vprintf$bare) refers to stdout.o(.data) for __stdout
    printfb.o(i.__0vsnprintf$bare) refers to printfb.o(i._printf_core) for _printf_core
    printfb.o(i.__0vsnprintf$bare) refers to printfb.o(i._snputc) for _snputc
    printfb.o(i.__0vsprintf$bare) refers to printfb.o(i._printf_core) for _printf_core
    printfb.o(i.__0vsprintf$bare) refers to printfb.o(i._sputc) for _sputc
    printf0.o(i.__0fprintf$0) refers to printf0.o(i._printf_core) for _printf_core
    printf0.o(i.__0fprintf$0) refers to main.o(i.fputc) for fputc
    printf0.o(i.__0printf$0) refers to printf0.o(i._printf_core) for _printf_core
    printf0.o(i.__0printf$0) refers to main.o(i.fputc) for fputc
    printf0.o(i.__0printf$0) refers to stdout.o(.data) for __stdout
    printf0.o(i.__0snprintf$0) refers to printf0.o(i._printf_core) for _printf_core
    printf0.o(i.__0snprintf$0) refers to printf0.o(i._snputc) for _snputc
    printf0.o(i.__0sprintf$0) refers to printf0.o(i._printf_core) for _printf_core
    printf0.o(i.__0sprintf$0) refers to printf0.o(i._sputc) for _sputc
    printf0.o(i.__0vfprintf$0) refers to printf0.o(i._printf_core) for _printf_core
    printf0.o(i.__0vfprintf$0) refers to main.o(i.fputc) for fputc
    printf0.o(i.__0vprintf$0) refers to printf0.o(i._printf_core) for _printf_core
    printf0.o(i.__0vprintf$0) refers to main.o(i.fputc) for fputc
    printf0.o(i.__0vprintf$0) refers to stdout.o(.data) for __stdout
    printf0.o(i.__0vsnprintf$0) refers to printf0.o(i._printf_core) for _printf_core
    printf0.o(i.__0vsnprintf$0) refers to printf0.o(i._snputc) for _snputc
    printf0.o(i.__0vsprintf$0) refers to printf0.o(i._printf_core) for _printf_core
    printf0.o(i.__0vsprintf$0) refers to printf0.o(i._sputc) for _sputc
    printf1.o(i.__0fprintf$1) refers to printf1.o(i._printf_core) for _printf_core
    printf1.o(i.__0fprintf$1) refers to main.o(i.fputc) for fputc
    printf1.o(i.__0printf$1) refers to printf1.o(i._printf_core) for _printf_core
    printf1.o(i.__0printf$1) refers to main.o(i.fputc) for fputc
    printf1.o(i.__0printf$1) refers to stdout.o(.data) for __stdout
    printf1.o(i.__0snprintf$1) refers to printf1.o(i._printf_core) for _printf_core
    printf1.o(i.__0snprintf$1) refers to printf1.o(i._snputc) for _snputc
    printf1.o(i.__0sprintf$1) refers to printf1.o(i._printf_core) for _printf_core
    printf1.o(i.__0sprintf$1) refers to printf1.o(i._sputc) for _sputc
    printf1.o(i.__0vfprintf$1) refers to printf1.o(i._printf_core) for _printf_core
    printf1.o(i.__0vfprintf$1) refers to main.o(i.fputc) for fputc
    printf1.o(i.__0vprintf$1) refers to printf1.o(i._printf_core) for _printf_core
    printf1.o(i.__0vprintf$1) refers to main.o(i.fputc) for fputc
    printf1.o(i.__0vprintf$1) refers to stdout.o(.data) for __stdout
    printf1.o(i.__0vsnprintf$1) refers to printf1.o(i._printf_core) for _printf_core
    printf1.o(i.__0vsnprintf$1) refers to printf1.o(i._snputc) for _snputc
    printf1.o(i.__0vsprintf$1) refers to printf1.o(i._printf_core) for _printf_core
    printf1.o(i.__0vsprintf$1) refers to printf1.o(i._sputc) for _sputc
    printf1.o(i._printf_core) refers to uidiv.o(.text) for __aeabi_uidivmod
    printf2.o(i.__0fprintf$2) refers to printf2.o(i._printf_core) for _printf_core
    printf2.o(i.__0fprintf$2) refers to main.o(i.fputc) for fputc
    printf2.o(i.__0printf$2) refers to printf2.o(i._printf_core) for _printf_core
    printf2.o(i.__0printf$2) refers to main.o(i.fputc) for fputc
    printf2.o(i.__0printf$2) refers to stdout.o(.data) for __stdout
    printf2.o(i.__0snprintf$2) refers to printf2.o(i._printf_core) for _printf_core
    printf2.o(i.__0snprintf$2) refers to printf2.o(i._snputc) for _snputc
    printf2.o(i.__0sprintf$2) refers to printf2.o(i._printf_core) for _printf_core
    printf2.o(i.__0sprintf$2) refers to printf2.o(i._sputc) for _sputc
    printf2.o(i.__0vfprintf$2) refers to printf2.o(i._printf_core) for _printf_core
    printf2.o(i.__0vfprintf$2) refers to main.o(i.fputc) for fputc
    printf2.o(i.__0vprintf$2) refers to printf2.o(i._printf_core) for _printf_core
    printf2.o(i.__0vprintf$2) refers to main.o(i.fputc) for fputc
    printf2.o(i.__0vprintf$2) refers to stdout.o(.data) for __stdout
    printf2.o(i.__0vsnprintf$2) refers to printf2.o(i._printf_core) for _printf_core
    printf2.o(i.__0vsnprintf$2) refers to printf2.o(i._snputc) for _snputc
    printf2.o(i.__0vsprintf$2) refers to printf2.o(i._printf_core) for _printf_core
    printf2.o(i.__0vsprintf$2) refers to printf2.o(i._sputc) for _sputc
    printf3.o(i.__0fprintf$3) refers to printf3.o(i._printf_core) for _printf_core
    printf3.o(i.__0fprintf$3) refers to main.o(i.fputc) for fputc
    printf3.o(i.__0printf$3) refers to printf3.o(i._printf_core) for _printf_core
    printf3.o(i.__0printf$3) refers to main.o(i.fputc) for fputc
    printf3.o(i.__0printf$3) refers to stdout.o(.data) for __stdout
    printf3.o(i.__0snprintf$3) refers to printf3.o(i._printf_core) for _printf_core
    printf3.o(i.__0snprintf$3) refers to printf3.o(i._snputc) for _snputc
    printf3.o(i.__0sprintf$3) refers to printf3.o(i._printf_core) for _printf_core
    printf3.o(i.__0sprintf$3) refers to printf3.o(i._sputc) for _sputc
    printf3.o(i.__0vfprintf$3) refers to printf3.o(i._printf_core) for _printf_core
    printf3.o(i.__0vfprintf$3) refers to main.o(i.fputc) for fputc
    printf3.o(i.__0vprintf$3) refers to printf3.o(i._printf_core) for _printf_core
    printf3.o(i.__0vprintf$3) refers to main.o(i.fputc) for fputc
    printf3.o(i.__0vprintf$3) refers to stdout.o(.data) for __stdout
    printf3.o(i.__0vsnprintf$3) refers to printf3.o(i._printf_core) for _printf_core
    printf3.o(i.__0vsnprintf$3) refers to printf3.o(i._snputc) for _snputc
    printf3.o(i.__0vsprintf$3) refers to printf3.o(i._printf_core) for _printf_core
    printf3.o(i.__0vsprintf$3) refers to printf3.o(i._sputc) for _sputc
    printf3.o(i._printf_core) refers to uidiv.o(.text) for __aeabi_uidivmod
    printf4.o(i.__0fprintf$4) refers to printf4.o(i._printf_core) for _printf_core
    printf4.o(i.__0fprintf$4) refers to main.o(i.fputc) for fputc
    printf4.o(i.__0printf$4) refers to printf4.o(i._printf_core) for _printf_core
    printf4.o(i.__0printf$4) refers to main.o(i.fputc) for fputc
    printf4.o(i.__0printf$4) refers to stdout.o(.data) for __stdout
    printf4.o(i.__0snprintf$4) refers to printf4.o(i._printf_core) for _printf_core
    printf4.o(i.__0snprintf$4) refers to printf4.o(i._snputc) for _snputc
    printf4.o(i.__0sprintf$4) refers to printf4.o(i._printf_core) for _printf_core
    printf4.o(i.__0sprintf$4) refers to printf4.o(i._sputc) for _sputc
    printf4.o(i.__0vfprintf$4) refers to printf4.o(i._printf_core) for _printf_core
    printf4.o(i.__0vfprintf$4) refers to main.o(i.fputc) for fputc
    printf4.o(i.__0vprintf$4) refers to printf4.o(i._printf_core) for _printf_core
    printf4.o(i.__0vprintf$4) refers to main.o(i.fputc) for fputc
    printf4.o(i.__0vprintf$4) refers to stdout.o(.data) for __stdout
    printf4.o(i.__0vsnprintf$4) refers to printf4.o(i._printf_core) for _printf_core
    printf4.o(i.__0vsnprintf$4) refers to printf4.o(i._snputc) for _snputc
    printf4.o(i.__0vsprintf$4) refers to printf4.o(i._printf_core) for _printf_core
    printf4.o(i.__0vsprintf$4) refers to printf4.o(i._sputc) for _sputc
    printf4.o(i._printf_core) refers to uldiv.o(.text) for __aeabi_uldivmod
    printf5.o(i.__0fprintf$5) refers to printf5.o(i._printf_core) for _printf_core
    printf5.o(i.__0fprintf$5) refers to main.o(i.fputc) for fputc
    printf5.o(i.__0printf$5) refers to printf5.o(i._printf_core) for _printf_core
    printf5.o(i.__0printf$5) refers to main.o(i.fputc) for fputc
    printf5.o(i.__0printf$5) refers to stdout.o(.data) for __stdout
    printf5.o(i.__0snprintf$5) refers to printf5.o(i._printf_core) for _printf_core
    printf5.o(i.__0snprintf$5) refers to printf5.o(i._snputc) for _snputc
    printf5.o(i.__0sprintf$5) refers to printf5.o(i._printf_core) for _printf_core
    printf5.o(i.__0sprintf$5) refers to printf5.o(i._sputc) for _sputc
    printf5.o(i.__0vfprintf$5) refers to printf5.o(i._printf_core) for _printf_core
    printf5.o(i.__0vfprintf$5) refers to main.o(i.fputc) for fputc
    printf5.o(i.__0vprintf$5) refers to printf5.o(i._printf_core) for _printf_core
    printf5.o(i.__0vprintf$5) refers to main.o(i.fputc) for fputc
    printf5.o(i.__0vprintf$5) refers to stdout.o(.data) for __stdout
    printf5.o(i.__0vsnprintf$5) refers to printf5.o(i._printf_core) for _printf_core
    printf5.o(i.__0vsnprintf$5) refers to printf5.o(i._snputc) for _snputc
    printf5.o(i.__0vsprintf$5) refers to printf5.o(i._printf_core) for _printf_core
    printf5.o(i.__0vsprintf$5) refers to printf5.o(i._sputc) for _sputc
    printf5.o(i._printf_core) refers to uldiv.o(.text) for __aeabi_uldivmod
    printf6.o(i.__0fprintf$6) refers to printf6.o(i._printf_core) for _printf_core
    printf6.o(i.__0fprintf$6) refers to main.o(i.fputc) for fputc
    printf6.o(i.__0printf$6) refers to printf6.o(i._printf_core) for _printf_core
    printf6.o(i.__0printf$6) refers to main.o(i.fputc) for fputc
    printf6.o(i.__0printf$6) refers to stdout.o(.data) for __stdout
    printf6.o(i.__0snprintf$6) refers to printf6.o(i._printf_core) for _printf_core
    printf6.o(i.__0snprintf$6) refers to printf6.o(i._snputc) for _snputc
    printf6.o(i.__0sprintf$6) refers to printf6.o(i._printf_core) for _printf_core
    printf6.o(i.__0sprintf$6) refers to printf6.o(i._sputc) for _sputc
    printf6.o(i.__0vfprintf$6) refers to printf6.o(i._printf_core) for _printf_core
    printf6.o(i.__0vfprintf$6) refers to main.o(i.fputc) for fputc
    printf6.o(i.__0vprintf$6) refers to printf6.o(i._printf_core) for _printf_core
    printf6.o(i.__0vprintf$6) refers to main.o(i.fputc) for fputc
    printf6.o(i.__0vprintf$6) refers to stdout.o(.data) for __stdout
    printf6.o(i.__0vsnprintf$6) refers to printf6.o(i._printf_core) for _printf_core
    printf6.o(i.__0vsnprintf$6) refers to printf6.o(i._snputc) for _snputc
    printf6.o(i.__0vsprintf$6) refers to printf6.o(i._printf_core) for _printf_core
    printf6.o(i.__0vsprintf$6) refers to printf6.o(i._sputc) for _sputc
    printf6.o(i._printf_core) refers to printf6.o(i._printf_pre_padding) for _printf_pre_padding
    printf6.o(i._printf_core) refers to uidiv.o(.text) for __aeabi_uidivmod
    printf6.o(i._printf_core) refers to printf6.o(i._printf_post_padding) for _printf_post_padding
    printf7.o(i.__0fprintf$7) refers to printf7.o(i._printf_core) for _printf_core
    printf7.o(i.__0fprintf$7) refers to main.o(i.fputc) for fputc
    printf7.o(i.__0printf$7) refers to printf7.o(i._printf_core) for _printf_core
    printf7.o(i.__0printf$7) refers to main.o(i.fputc) for fputc
    printf7.o(i.__0printf$7) refers to stdout.o(.data) for __stdout
    printf7.o(i.__0snprintf$7) refers to printf7.o(i._printf_core) for _printf_core
    printf7.o(i.__0snprintf$7) refers to printf7.o(i._snputc) for _snputc
    printf7.o(i.__0sprintf$7) refers to printf7.o(i._printf_core) for _printf_core
    printf7.o(i.__0sprintf$7) refers to printf7.o(i._sputc) for _sputc
    printf7.o(i.__0vfprintf$7) refers to printf7.o(i._printf_core) for _printf_core
    printf7.o(i.__0vfprintf$7) refers to main.o(i.fputc) for fputc
    printf7.o(i.__0vprintf$7) refers to printf7.o(i._printf_core) for _printf_core
    printf7.o(i.__0vprintf$7) refers to main.o(i.fputc) for fputc
    printf7.o(i.__0vprintf$7) refers to stdout.o(.data) for __stdout
    printf7.o(i.__0vsnprintf$7) refers to printf7.o(i._printf_core) for _printf_core
    printf7.o(i.__0vsnprintf$7) refers to printf7.o(i._snputc) for _snputc
    printf7.o(i.__0vsprintf$7) refers to printf7.o(i._printf_core) for _printf_core
    printf7.o(i.__0vsprintf$7) refers to printf7.o(i._sputc) for _sputc
    printf7.o(i._printf_core) refers to printf7.o(i._printf_pre_padding) for _printf_pre_padding
    printf7.o(i._printf_core) refers to uldiv.o(.text) for __aeabi_uldivmod
    printf7.o(i._printf_core) refers to printf7.o(i._printf_post_padding) for _printf_post_padding
    printf8.o(i.__0fprintf$8) refers to printf8.o(i._printf_core) for _printf_core
    printf8.o(i.__0fprintf$8) refers to main.o(i.fputc) for fputc
    printf8.o(i.__0printf$8) refers to printf8.o(i._printf_core) for _printf_core
    printf8.o(i.__0printf$8) refers to main.o(i.fputc) for fputc
    printf8.o(i.__0printf$8) refers to stdout.o(.data) for __stdout
    printf8.o(i.__0snprintf$8) refers to printf8.o(i._printf_core) for _printf_core
    printf8.o(i.__0snprintf$8) refers to printf8.o(i._snputc) for _snputc
    printf8.o(i.__0sprintf$8) refers to printf8.o(i._printf_core) for _printf_core
    printf8.o(i.__0sprintf$8) refers to printf8.o(i._sputc) for _sputc
    printf8.o(i.__0vfprintf$8) refers to printf8.o(i._printf_core) for _printf_core
    printf8.o(i.__0vfprintf$8) refers to main.o(i.fputc) for fputc
    printf8.o(i.__0vprintf$8) refers to printf8.o(i._printf_core) for _printf_core
    printf8.o(i.__0vprintf$8) refers to main.o(i.fputc) for fputc
    printf8.o(i.__0vprintf$8) refers to stdout.o(.data) for __stdout
    printf8.o(i.__0vsnprintf$8) refers to printf8.o(i._printf_core) for _printf_core
    printf8.o(i.__0vsnprintf$8) refers to printf8.o(i._snputc) for _snputc
    printf8.o(i.__0vsprintf$8) refers to printf8.o(i._printf_core) for _printf_core
    printf8.o(i.__0vsprintf$8) refers to printf8.o(i._sputc) for _sputc
    printf8.o(i._printf_core) refers to printf8.o(i._printf_pre_padding) for _printf_pre_padding
    printf8.o(i._printf_core) refers to uldiv.o(.text) for __aeabi_uldivmod
    printf8.o(i._printf_core) refers to printf8.o(i._printf_post_padding) for _printf_post_padding
    printfa.o(i.__0fprintf) refers (Special) to iusefp.o(.text) for __I$use$fp
    printfa.o(i.__0fprintf) refers to printfa.o(i._printf_core) for _printf_core
    printfa.o(i.__0fprintf) refers to main.o(i.fputc) for fputc
    printfa.o(i.__0printf) refers (Special) to iusefp.o(.text) for __I$use$fp
    printfa.o(i.__0printf) refers to printfa.o(i._printf_core) for _printf_core
    printfa.o(i.__0printf) refers to main.o(i.fputc) for fputc
    printfa.o(i.__0printf) refers to stdout.o(.data) for __stdout
    printfa.o(i.__0snprintf) refers (Special) to iusefp.o(.text) for __I$use$fp
    printfa.o(i.__0snprintf) refers to printfa.o(i._printf_core) for _printf_core
    printfa.o(i.__0snprintf) refers to printfa.o(i._snputc) for _snputc
    printfa.o(i.__0sprintf) refers (Special) to iusefp.o(.text) for __I$use$fp
    printfa.o(i.__0sprintf) refers to printfa.o(i._printf_core) for _printf_core
    printfa.o(i.__0sprintf) refers to printfa.o(i._sputc) for _sputc
    printfa.o(i.__0vfprintf) refers (Special) to iusefp.o(.text) for __I$use$fp
    printfa.o(i.__0vfprintf) refers to printfa.o(i._printf_core) for _printf_core
    printfa.o(i.__0vfprintf) refers to main.o(i.fputc) for fputc
    printfa.o(i.__0vprintf) refers (Special) to iusefp.o(.text) for __I$use$fp
    printfa.o(i.__0vprintf) refers to printfa.o(i._printf_core) for _printf_core
    printfa.o(i.__0vprintf) refers to main.o(i.fputc) for fputc
    printfa.o(i.__0vprintf) refers to stdout.o(.data) for __stdout
    printfa.o(i.__0vsnprintf) refers (Special) to iusefp.o(.text) for __I$use$fp
    printfa.o(i.__0vsnprintf) refers to printfa.o(i._printf_core) for _printf_core
    printfa.o(i.__0vsnprintf) refers to printfa.o(i._snputc) for _snputc
    printfa.o(i.__0vsprintf) refers (Special) to iusefp.o(.text) for __I$use$fp
    printfa.o(i.__0vsprintf) refers to printfa.o(i._printf_core) for _printf_core
    printfa.o(i.__0vsprintf) refers to printfa.o(i._sputc) for _sputc
    printfa.o(i._fp_digits) refers (Special) to iusefp.o(.text) for __I$use$fp
    printfa.o(i._fp_digits) refers to dmul.o(.text) for __aeabi_dmul
    printfa.o(i._fp_digits) refers to ddiv.o(.text) for __aeabi_ddiv
    printfa.o(i._fp_digits) refers to cdrcmple.o(.text) for __aeabi_cdrcmple
    printfa.o(i._fp_digits) refers to dadd.o(.text) for __aeabi_dadd
    printfa.o(i._fp_digits) refers to dfixul.o(.text) for __aeabi_d2ulz
    printfa.o(i._fp_digits) refers to uldiv.o(.text) for __aeabi_uldivmod
    printfa.o(i._printf_core) refers (Special) to iusefp.o(.text) for __I$use$fp
    printfa.o(i._printf_core) refers to printfa.o(i._printf_pre_padding) for _printf_pre_padding
    printfa.o(i._printf_core) refers to uldiv.o(.text) for __aeabi_uldivmod
    printfa.o(i._printf_core) refers to printfa.o(i._printf_post_padding) for _printf_post_padding
    printfa.o(i._printf_core) refers to printfa.o(i._fp_digits) for _fp_digits
    printfa.o(i._printf_core) refers to uidiv.o(.text) for __aeabi_uidivmod
    printfa.o(i._printf_post_padding) refers (Special) to iusefp.o(.text) for __I$use$fp
    printfa.o(i._printf_pre_padding) refers (Special) to iusefp.o(.text) for __I$use$fp
    printfa.o(i._snputc) refers (Special) to iusefp.o(.text) for __I$use$fp
    printfa.o(i._sputc) refers (Special) to iusefp.o(.text) for __I$use$fp
    dmul.o(.text) refers (Special) to iusefp.o(.text) for __I$use$fp
    dmul.o(.text) refers to depilogue.o(.text) for _double_epilogue
    dflti.o(.text) refers (Special) to iusefp.o(.text) for __I$use$fp
    dflti.o(.text) refers to depilogue.o(.text) for _double_epilogue
    dfixi.o(.text) refers (Special) to iusefp.o(.text) for __I$use$fp
    dfixi.o(.text) refers to llushr.o(.text) for __aeabi_llsr
    f2d.o(.text) refers (Special) to iusefp.o(.text) for __I$use$fp
    cdcmple.o(.text) refers (Special) to iusefp.o(.text) for __I$use$fp
    cdrcmple.o(.text) refers (Special) to iusefp.o(.text) for __I$use$fp
    entry2.o(.ARM.Collect$$$$00000001) refers to entry2.o(.ARM.Collect$$$$00002712) for __lit__00000000
    entry2.o(.ARM.Collect$$$$00002712) refers to startup_stm32f407xx.o(STACK) for __initial_sp
    entry2.o(__vectab_stack_and_reset_area) refers to startup_stm32f407xx.o(STACK) for __initial_sp
    entry2.o(__vectab_stack_and_reset_area) refers to entry.o(.ARM.Collect$$$$00000000) for __main
    entry5.o(.ARM.Collect$$$$00000004) refers to init.o(.text) for __scatterload
    entry9a.o(.ARM.Collect$$$$0000000B) refers to main.o(i.main) for main
    entry9b.o(.ARM.Collect$$$$0000000C) refers to main.o(i.main) for main
    depilogue.o(.text) refers to llshl.o(.text) for __aeabi_llsl
    depilogue.o(.text) refers to llushr.o(.text) for __aeabi_llsr
    dadd.o(.text) refers to llshl.o(.text) for __aeabi_llsl
    dadd.o(.text) refers to llsshr.o(.text) for __aeabi_lasr
    dadd.o(.text) refers to depilogue.o(.text) for _double_epilogue
    ddiv.o(.text) refers to depilogue.o(.text) for _double_round
    dfixul.o(.text) refers to llushr.o(.text) for __aeabi_llsr
    dfixul.o(.text) refers to llshl.o(.text) for __aeabi_llsl
    init.o(.text) refers to entry5.o(.ARM.Collect$$$$00000004) for __main_after_scatterload


==============================================================================

Removing Unused input sections from the image.

    Removing startup_stm32f407xx.o(HEAP), (4096 bytes).
    Removing main.o(.rev16_text), (4 bytes).
    Removing main.o(.revsh_text), (4 bytes).
    Removing main.o(.rrx_text), (6 bytes).
    Removing main.o(i.MX_CAN2_Init), (132 bytes).
    Removing main.o(i.fgetc), (32 bytes).
    Removing stm32f4xx_it.o(.rev16_text), (4 bytes).
    Removing stm32f4xx_it.o(.revsh_text), (4 bytes).
    Removing stm32f4xx_it.o(.rrx_text), (6 bytes).
    Removing stm32f4xx_hal_msp.o(.rev16_text), (4 bytes).
    Removing stm32f4xx_hal_msp.o(.revsh_text), (4 bytes).
    Removing stm32f4xx_hal_msp.o(.rrx_text), (6 bytes).
    Removing stm32f4xx_hal_msp.o(i.HAL_ADC_MspDeInit), (64 bytes).
    Removing stm32f4xx_hal_msp.o(i.HAL_CAN_MspDeInit), (64 bytes).
    Removing stm32f4xx_hal_msp.o(i.HAL_CAN_MspInit), (192 bytes).
    Removing stm32f4xx_hal_msp.o(i.HAL_TIM_Base_MspDeInit), (244 bytes).
    Removing stm32f4xx_hal_msp.o(i.HAL_TIM_IC_MspDeInit), (48 bytes).
    Removing stm32f4xx_hal_msp.o(i.HAL_UART_MspDeInit), (56 bytes).
    Removing stm32f4xx_hal_adc.o(.rev16_text), (4 bytes).
    Removing stm32f4xx_hal_adc.o(.revsh_text), (4 bytes).
    Removing stm32f4xx_hal_adc.o(.rrx_text), (6 bytes).
    Removing stm32f4xx_hal_adc.o(i.HAL_ADC_ConvCpltCallback), (2 bytes).
    Removing stm32f4xx_hal_adc.o(i.HAL_ADC_DeInit), (80 bytes).
    Removing stm32f4xx_hal_adc.o(i.HAL_ADC_GetError), (6 bytes).
    Removing stm32f4xx_hal_adc.o(i.HAL_ADC_GetState), (6 bytes).
    Removing stm32f4xx_hal_adc.o(i.HAL_ADC_GetValue), (8 bytes).
    Removing stm32f4xx_hal_adc.o(i.HAL_ADC_LevelOutOfWindowCallback), (2 bytes).
    Removing stm32f4xx_hal_adc.o(i.HAL_ADC_MspDeInit), (2 bytes).
    Removing stm32f4xx_hal_adc.o(i.HAL_ADC_MspInit), (2 bytes).
    Removing stm32f4xx_hal_adc.o(i.HAL_ADC_PollForConversion), (194 bytes).
    Removing stm32f4xx_hal_adc.o(i.HAL_ADC_PollForEvent), (118 bytes).
    Removing stm32f4xx_hal_adc.o(i.HAL_ADC_RegisterCallback), (136 bytes).
    Removing stm32f4xx_hal_adc.o(i.HAL_ADC_Start), (316 bytes).
    Removing stm32f4xx_hal_adc.o(i.HAL_ADC_Start_IT), (332 bytes).
    Removing stm32f4xx_hal_adc.o(i.HAL_ADC_Stop), (72 bytes).
    Removing stm32f4xx_hal_adc.o(i.HAL_ADC_Stop_DMA), (108 bytes).
    Removing stm32f4xx_hal_adc.o(i.HAL_ADC_Stop_IT), (88 bytes).
    Removing stm32f4xx_hal_adc.o(i.HAL_ADC_UnRegisterCallback), (164 bytes).
    Removing stm32f4xx_hal_adc_ex.o(.rev16_text), (4 bytes).
    Removing stm32f4xx_hal_adc_ex.o(.revsh_text), (4 bytes).
    Removing stm32f4xx_hal_adc_ex.o(.rrx_text), (6 bytes).
    Removing stm32f4xx_hal_adc_ex.o(i.ADC_MultiModeDMAConvCplt), (110 bytes).
    Removing stm32f4xx_hal_adc_ex.o(i.ADC_MultiModeDMAError), (26 bytes).
    Removing stm32f4xx_hal_adc_ex.o(i.ADC_MultiModeDMAHalfConvCplt), (14 bytes).
    Removing stm32f4xx_hal_adc_ex.o(i.HAL_ADCEx_InjectedConfigChannel), (552 bytes).
    Removing stm32f4xx_hal_adc_ex.o(i.HAL_ADCEx_InjectedGetValue), (70 bytes).
    Removing stm32f4xx_hal_adc_ex.o(i.HAL_ADCEx_InjectedPollForConversion), (160 bytes).
    Removing stm32f4xx_hal_adc_ex.o(i.HAL_ADCEx_InjectedStart), (268 bytes).
    Removing stm32f4xx_hal_adc_ex.o(i.HAL_ADCEx_InjectedStart_IT), (280 bytes).
    Removing stm32f4xx_hal_adc_ex.o(i.HAL_ADCEx_InjectedStop), (104 bytes).
    Removing stm32f4xx_hal_adc_ex.o(i.HAL_ADCEx_InjectedStop_IT), (116 bytes).
    Removing stm32f4xx_hal_adc_ex.o(i.HAL_ADCEx_MultiModeConfigChannel), (96 bytes).
    Removing stm32f4xx_hal_adc_ex.o(i.HAL_ADCEx_MultiModeGetValue), (12 bytes).
    Removing stm32f4xx_hal_adc_ex.o(i.HAL_ADCEx_MultiModeStart_DMA), (300 bytes).
    Removing stm32f4xx_hal_adc_ex.o(i.HAL_ADCEx_MultiModeStop_DMA), (112 bytes).
    Removing stm32f4xx_hal_rcc.o(.rev16_text), (4 bytes).
    Removing stm32f4xx_hal_rcc.o(.revsh_text), (4 bytes).
    Removing stm32f4xx_hal_rcc.o(.rrx_text), (6 bytes).
    Removing stm32f4xx_hal_rcc.o(i.HAL_RCC_CSSCallback), (2 bytes).
    Removing stm32f4xx_hal_rcc.o(i.HAL_RCC_DeInit), (4 bytes).
    Removing stm32f4xx_hal_rcc.o(i.HAL_RCC_DisableCSS), (12 bytes).
    Removing stm32f4xx_hal_rcc.o(i.HAL_RCC_EnableCSS), (12 bytes).
    Removing stm32f4xx_hal_rcc.o(i.HAL_RCC_GetClockConfig), (68 bytes).
    Removing stm32f4xx_hal_rcc.o(i.HAL_RCC_GetOscConfig), (244 bytes).
    Removing stm32f4xx_hal_rcc.o(i.HAL_RCC_MCOConfig), (192 bytes).
    Removing stm32f4xx_hal_rcc.o(i.HAL_RCC_NMI_IRQHandler), (32 bytes).
    Removing stm32f4xx_hal_rcc_ex.o(.rev16_text), (4 bytes).
    Removing stm32f4xx_hal_rcc_ex.o(.revsh_text), (4 bytes).
    Removing stm32f4xx_hal_rcc_ex.o(.rrx_text), (6 bytes).
    Removing stm32f4xx_hal_rcc_ex.o(i.HAL_RCCEx_DisablePLLI2S), (56 bytes).
    Removing stm32f4xx_hal_rcc_ex.o(i.HAL_RCCEx_EnablePLLI2S), (112 bytes).
    Removing stm32f4xx_hal_rcc_ex.o(i.HAL_RCCEx_GetPeriphCLKConfig), (56 bytes).
    Removing stm32f4xx_hal_rcc_ex.o(i.HAL_RCCEx_GetPeriphCLKFreq), (144 bytes).
    Removing stm32f4xx_hal_rcc_ex.o(i.HAL_RCCEx_PeriphCLKConfig), (416 bytes).
    Removing stm32f4xx_hal_rcc_ex.o(i.HAL_RCC_DeInit), (384 bytes).
    Removing stm32f4xx_hal_flash.o(.rev16_text), (4 bytes).
    Removing stm32f4xx_hal_flash.o(.revsh_text), (4 bytes).
    Removing stm32f4xx_hal_flash.o(.rrx_text), (6 bytes).
    Removing stm32f4xx_hal_flash.o(i.HAL_FLASH_EndOfOperationCallback), (2 bytes).
    Removing stm32f4xx_hal_flash.o(i.HAL_FLASH_GetError), (12 bytes).
    Removing stm32f4xx_hal_flash.o(i.HAL_FLASH_IRQHandler), (272 bytes).
    Removing stm32f4xx_hal_flash.o(i.HAL_FLASH_OB_Launch), (28 bytes).
    Removing stm32f4xx_hal_flash.o(i.HAL_FLASH_OB_Lock), (20 bytes).
    Removing stm32f4xx_hal_flash.o(i.HAL_FLASH_OB_Unlock), (44 bytes).
    Removing stm32f4xx_hal_flash.o(i.HAL_FLASH_OperationErrorCallback), (2 bytes).
    Removing stm32f4xx_hal_flash.o(i.HAL_FLASH_Program_IT), (136 bytes).
    Removing stm32f4xx_hal_flash_ex.o(.rev16_text), (4 bytes).
    Removing stm32f4xx_hal_flash_ex.o(.revsh_text), (4 bytes).
    Removing stm32f4xx_hal_flash_ex.o(.rrx_text), (6 bytes).
    Removing stm32f4xx_hal_flash_ex.o(i.FLASH_OB_BOR_LevelConfig), (32 bytes).
    Removing stm32f4xx_hal_flash_ex.o(i.FLASH_OB_DisableWRP), (40 bytes).
    Removing stm32f4xx_hal_flash_ex.o(i.FLASH_OB_EnableWRP), (40 bytes).
    Removing stm32f4xx_hal_flash_ex.o(i.FLASH_OB_GetBOR), (16 bytes).
    Removing stm32f4xx_hal_flash_ex.o(i.FLASH_OB_GetRDP), (36 bytes).
    Removing stm32f4xx_hal_flash_ex.o(i.FLASH_OB_GetUser), (16 bytes).
    Removing stm32f4xx_hal_flash_ex.o(i.FLASH_OB_GetWRP), (12 bytes).
    Removing stm32f4xx_hal_flash_ex.o(i.FLASH_OB_RDP_LevelConfig), (32 bytes).
    Removing stm32f4xx_hal_flash_ex.o(i.FLASH_OB_UserConfig), (60 bytes).
    Removing stm32f4xx_hal_flash_ex.o(i.HAL_FLASHEx_Erase_IT), (120 bytes).
    Removing stm32f4xx_hal_flash_ex.o(i.HAL_FLASHEx_OBGetConfig), (34 bytes).
    Removing stm32f4xx_hal_flash_ex.o(i.HAL_FLASHEx_OBProgram), (148 bytes).
    Removing stm32f4xx_hal_flash_ramfunc.o(.rev16_text), (4 bytes).
    Removing stm32f4xx_hal_flash_ramfunc.o(.revsh_text), (4 bytes).
    Removing stm32f4xx_hal_flash_ramfunc.o(.rrx_text), (6 bytes).
    Removing stm32f4xx_hal_gpio.o(.rev16_text), (4 bytes).
    Removing stm32f4xx_hal_gpio.o(.revsh_text), (4 bytes).
    Removing stm32f4xx_hal_gpio.o(.rrx_text), (6 bytes).
    Removing stm32f4xx_hal_gpio.o(i.HAL_GPIO_DeInit), (356 bytes).
    Removing stm32f4xx_hal_gpio.o(i.HAL_GPIO_EXTI_Callback), (2 bytes).
    Removing stm32f4xx_hal_gpio.o(i.HAL_GPIO_LockPin), (46 bytes).
    Removing stm32f4xx_hal_dma_ex.o(.rev16_text), (4 bytes).
    Removing stm32f4xx_hal_dma_ex.o(.revsh_text), (4 bytes).
    Removing stm32f4xx_hal_dma_ex.o(.rrx_text), (6 bytes).
    Removing stm32f4xx_hal_dma_ex.o(i.DMA_MultiBufferSetConfig), (32 bytes).
    Removing stm32f4xx_hal_dma_ex.o(i.HAL_DMAEx_ChangeMemory), (18 bytes).
    Removing stm32f4xx_hal_dma_ex.o(i.HAL_DMAEx_MultiBufferStart), (124 bytes).
    Removing stm32f4xx_hal_dma_ex.o(i.HAL_DMAEx_MultiBufferStart_IT), (4056 bytes).
    Removing stm32f4xx_hal_dma.o(.rev16_text), (4 bytes).
    Removing stm32f4xx_hal_dma.o(.revsh_text), (4 bytes).
    Removing stm32f4xx_hal_dma.o(.rrx_text), (6 bytes).
    Removing stm32f4xx_hal_dma.o(i.HAL_DMA_Abort), (170 bytes).
    Removing stm32f4xx_hal_dma.o(i.HAL_DMA_DeInit), (112 bytes).
    Removing stm32f4xx_hal_dma.o(i.HAL_DMA_GetError), (6 bytes).
    Removing stm32f4xx_hal_dma.o(i.HAL_DMA_GetState), (8 bytes).
    Removing stm32f4xx_hal_dma.o(i.HAL_DMA_PollForTransfer), (346 bytes).
    Removing stm32f4xx_hal_dma.o(i.HAL_DMA_RegisterCallback), (94 bytes).
    Removing stm32f4xx_hal_dma.o(i.HAL_DMA_Start), (102 bytes).
    Removing stm32f4xx_hal_dma.o(i.HAL_DMA_UnRegisterCallback), (124 bytes).
    Removing stm32f4xx_hal_pwr.o(.rev16_text), (4 bytes).
    Removing stm32f4xx_hal_pwr.o(.revsh_text), (4 bytes).
    Removing stm32f4xx_hal_pwr.o(.rrx_text), (6 bytes).
    Removing stm32f4xx_hal_pwr.o(i.HAL_PWR_ConfigPVD), (180 bytes).
    Removing stm32f4xx_hal_pwr.o(i.HAL_PWR_DeInit), (28 bytes).
    Removing stm32f4xx_hal_pwr.o(i.HAL_PWR_DisableBkUpAccess), (12 bytes).
    Removing stm32f4xx_hal_pwr.o(i.HAL_PWR_DisablePVD), (12 bytes).
    Removing stm32f4xx_hal_pwr.o(i.HAL_PWR_DisableSEVOnPend), (20 bytes).
    Removing stm32f4xx_hal_pwr.o(i.HAL_PWR_DisableSleepOnExit), (20 bytes).
    Removing stm32f4xx_hal_pwr.o(i.HAL_PWR_DisableWakeUpPin), (16 bytes).
    Removing stm32f4xx_hal_pwr.o(i.HAL_PWR_EnableBkUpAccess), (12 bytes).
    Removing stm32f4xx_hal_pwr.o(i.HAL_PWR_EnablePVD), (12 bytes).
    Removing stm32f4xx_hal_pwr.o(i.HAL_PWR_EnableSEVOnPend), (20 bytes).
    Removing stm32f4xx_hal_pwr.o(i.HAL_PWR_EnableSleepOnExit), (20 bytes).
    Removing stm32f4xx_hal_pwr.o(i.HAL_PWR_EnableWakeUpPin), (16 bytes).
    Removing stm32f4xx_hal_pwr.o(i.HAL_PWR_EnterSLEEPMode), (32 bytes).
    Removing stm32f4xx_hal_pwr.o(i.HAL_PWR_EnterSTANDBYMode), (40 bytes).
    Removing stm32f4xx_hal_pwr.o(i.HAL_PWR_EnterSTOPMode), (64 bytes).
    Removing stm32f4xx_hal_pwr.o(i.HAL_PWR_PVDCallback), (2 bytes).
    Removing stm32f4xx_hal_pwr.o(i.HAL_PWR_PVD_IRQHandler), (32 bytes).
    Removing stm32f4xx_hal_pwr_ex.o(.rev16_text), (4 bytes).
    Removing stm32f4xx_hal_pwr_ex.o(.revsh_text), (4 bytes).
    Removing stm32f4xx_hal_pwr_ex.o(.rrx_text), (6 bytes).
    Removing stm32f4xx_hal_pwr_ex.o(i.HAL_PWREx_ControlVoltageScaling), (120 bytes).
    Removing stm32f4xx_hal_pwr_ex.o(i.HAL_PWREx_DisableBkUpReg), (60 bytes).
    Removing stm32f4xx_hal_pwr_ex.o(i.HAL_PWREx_DisableFlashPowerDown), (12 bytes).
    Removing stm32f4xx_hal_pwr_ex.o(i.HAL_PWREx_EnableBkUpReg), (60 bytes).
    Removing stm32f4xx_hal_pwr_ex.o(i.HAL_PWREx_EnableFlashPowerDown), (12 bytes).
    Removing stm32f4xx_hal_pwr_ex.o(i.HAL_PWREx_GetVoltageRange), (16 bytes).
    Removing stm32f4xx_hal_cortex.o(.rev16_text), (4 bytes).
    Removing stm32f4xx_hal_cortex.o(.revsh_text), (4 bytes).
    Removing stm32f4xx_hal_cortex.o(.rrx_text), (6 bytes).
    Removing stm32f4xx_hal_cortex.o(i.HAL_MPU_ConfigRegion), (92 bytes).
    Removing stm32f4xx_hal_cortex.o(i.HAL_MPU_Disable), (44 bytes).
    Removing stm32f4xx_hal_cortex.o(i.HAL_MPU_Enable), (64 bytes).
    Removing stm32f4xx_hal_cortex.o(i.HAL_NVIC_ClearPendingIRQ), (36 bytes).
    Removing stm32f4xx_hal_cortex.o(i.HAL_NVIC_GetActive), (48 bytes).
    Removing stm32f4xx_hal_cortex.o(i.HAL_NVIC_GetPendingIRQ), (48 bytes).
    Removing stm32f4xx_hal_cortex.o(i.HAL_NVIC_GetPriority), (148 bytes).
    Removing stm32f4xx_hal_cortex.o(i.HAL_NVIC_GetPriorityGrouping), (8 bytes).
    Removing stm32f4xx_hal_cortex.o(i.HAL_NVIC_SetPendingIRQ), (36 bytes).
    Removing stm32f4xx_hal_cortex.o(i.HAL_NVIC_SystemReset), (68 bytes).
    Removing stm32f4xx_hal_cortex.o(i.HAL_SYSTICK_Callback), (2 bytes).
    Removing stm32f4xx_hal.o(.rev16_text), (4 bytes).
    Removing stm32f4xx_hal.o(.revsh_text), (4 bytes).
    Removing stm32f4xx_hal.o(.rrx_text), (6 bytes).
    Removing stm32f4xx_hal.o(i.HAL_DBGMCU_DisableDBGSleepMode), (20 bytes).
    Removing stm32f4xx_hal.o(i.HAL_DBGMCU_DisableDBGStandbyMode), (20 bytes).
    Removing stm32f4xx_hal.o(i.HAL_DBGMCU_DisableDBGStopMode), (20 bytes).
    Removing stm32f4xx_hal.o(i.HAL_DBGMCU_EnableDBGSleepMode), (20 bytes).
    Removing stm32f4xx_hal.o(i.HAL_DBGMCU_EnableDBGStandbyMode), (20 bytes).
    Removing stm32f4xx_hal.o(i.HAL_DBGMCU_EnableDBGStopMode), (20 bytes).
    Removing stm32f4xx_hal.o(i.HAL_DeInit), (68 bytes).
    Removing stm32f4xx_hal.o(i.HAL_DisableCompensationCell), (12 bytes).
    Removing stm32f4xx_hal.o(i.HAL_EnableCompensationCell), (12 bytes).
    Removing stm32f4xx_hal.o(i.HAL_GetDEVID), (16 bytes).
    Removing stm32f4xx_hal.o(i.HAL_GetHalVersion), (8 bytes).
    Removing stm32f4xx_hal.o(i.HAL_GetREVID), (12 bytes).
    Removing stm32f4xx_hal.o(i.HAL_GetTickFreq), (12 bytes).
    Removing stm32f4xx_hal.o(i.HAL_GetTickPrio), (12 bytes).
    Removing stm32f4xx_hal.o(i.HAL_GetUIDw0), (12 bytes).
    Removing stm32f4xx_hal.o(i.HAL_GetUIDw1), (12 bytes).
    Removing stm32f4xx_hal.o(i.HAL_GetUIDw2), (12 bytes).
    Removing stm32f4xx_hal.o(i.HAL_MspDeInit), (2 bytes).
    Removing stm32f4xx_hal.o(i.HAL_MspInit), (2 bytes).
    Removing stm32f4xx_hal.o(i.HAL_ResumeTick), (18 bytes).
    Removing stm32f4xx_hal.o(i.HAL_SetTickFreq), (48 bytes).
    Removing stm32f4xx_hal.o(i.HAL_SuspendTick), (18 bytes).
    Removing stm32f4xx_hal_exti.o(.rev16_text), (4 bytes).
    Removing stm32f4xx_hal_exti.o(.revsh_text), (4 bytes).
    Removing stm32f4xx_hal_exti.o(.rrx_text), (6 bytes).
    Removing stm32f4xx_hal_exti.o(i.HAL_EXTI_ClearConfigLine), (120 bytes).
    Removing stm32f4xx_hal_exti.o(i.HAL_EXTI_ClearPending), (28 bytes).
    Removing stm32f4xx_hal_exti.o(i.HAL_EXTI_GenerateSWI), (24 bytes).
    Removing stm32f4xx_hal_exti.o(i.HAL_EXTI_GetConfigLine), (176 bytes).
    Removing stm32f4xx_hal_exti.o(i.HAL_EXTI_GetHandle), (14 bytes).
    Removing stm32f4xx_hal_exti.o(i.HAL_EXTI_GetPending), (36 bytes).
    Removing stm32f4xx_hal_exti.o(i.HAL_EXTI_IRQHandler), (44 bytes).
    Removing stm32f4xx_hal_exti.o(i.HAL_EXTI_RegisterCallback), (20 bytes).
    Removing stm32f4xx_hal_exti.o(i.HAL_EXTI_SetConfigLine), (240 bytes).
    Removing stm32f4xx_hal_can.o(.rev16_text), (4 bytes).
    Removing stm32f4xx_hal_can.o(.revsh_text), (4 bytes).
    Removing stm32f4xx_hal_can.o(.rrx_text), (6 bytes).
    Removing stm32f4xx_hal_can.o(i.HAL_CAN_ConfigFilter), (264 bytes).
    Removing stm32f4xx_hal_can.o(i.HAL_CAN_DeInit), (40 bytes).
    Removing stm32f4xx_hal_can.o(i.HAL_CAN_GetError), (6 bytes).
    Removing stm32f4xx_hal_can.o(i.HAL_CAN_GetState), (8 bytes).
    Removing stm32f4xx_hal_can.o(i.HAL_CAN_Init), (444 bytes).
    Removing stm32f4xx_hal_can.o(i.HAL_CAN_MspDeInit), (2 bytes).
    Removing stm32f4xx_hal_can.o(i.HAL_CAN_MspInit), (2 bytes).
    Removing stm32f4xx_hal_can.o(i.HAL_CAN_Receive), (686 bytes).
    Removing stm32f4xx_hal_can.o(i.HAL_CAN_RxCpltCallback), (2 bytes).
    Removing stm32f4xx_hal_can.o(i.HAL_CAN_Sleep), (146 bytes).
    Removing stm32f4xx_hal_can.o(i.HAL_CAN_Transmit_IT), (502 bytes).
    Removing stm32f4xx_hal_can.o(i.HAL_CAN_WakeUp), (142 bytes).
    Removing stm32f4xx_hal_tim.o(.rev16_text), (4 bytes).
    Removing stm32f4xx_hal_tim.o(.revsh_text), (4 bytes).
    Removing stm32f4xx_hal_tim.o(.rrx_text), (6 bytes).
    Removing stm32f4xx_hal_tim.o(i.HAL_TIM_Base_DeInit), (70 bytes).
    Removing stm32f4xx_hal_tim.o(i.HAL_TIM_Base_GetState), (8 bytes).
    Removing stm32f4xx_hal_tim.o(i.HAL_TIM_Base_MspDeInit), (2 bytes).
    Removing stm32f4xx_hal_tim.o(i.HAL_TIM_Base_MspInit), (2 bytes).
    Removing stm32f4xx_hal_tim.o(i.HAL_TIM_Base_Start), (42 bytes).
    Removing stm32f4xx_hal_tim.o(i.HAL_TIM_Base_Start_DMA), (136 bytes).
    Removing stm32f4xx_hal_tim.o(i.HAL_TIM_Base_Stop), (56 bytes).
    Removing stm32f4xx_hal_tim.o(i.HAL_TIM_Base_Stop_DMA), (70 bytes).
    Removing stm32f4xx_hal_tim.o(i.HAL_TIM_Base_Stop_IT), (56 bytes).
    Removing stm32f4xx_hal_tim.o(i.HAL_TIM_ConfigOCrefClear), (270 bytes).
    Removing stm32f4xx_hal_tim.o(i.HAL_TIM_ConfigTI1Input), (22 bytes).
    Removing stm32f4xx_hal_tim.o(i.HAL_TIM_DMABurst_ReadStart), (488 bytes).
    Removing stm32f4xx_hal_tim.o(i.HAL_TIM_DMABurst_ReadStop), (146 bytes).
    Removing stm32f4xx_hal_tim.o(i.HAL_TIM_DMABurst_WriteStart), (488 bytes).
    Removing stm32f4xx_hal_tim.o(i.HAL_TIM_DMABurst_WriteStop), (146 bytes).
    Removing stm32f4xx_hal_tim.o(i.HAL_TIM_Encoder_DeInit), (70 bytes).
    Removing stm32f4xx_hal_tim.o(i.HAL_TIM_Encoder_GetState), (8 bytes).
    Removing stm32f4xx_hal_tim.o(i.HAL_TIM_Encoder_Init), (174 bytes).
    Removing stm32f4xx_hal_tim.o(i.HAL_TIM_Encoder_MspDeInit), (2 bytes).
    Removing stm32f4xx_hal_tim.o(i.HAL_TIM_Encoder_MspInit), (2 bytes).
    Removing stm32f4xx_hal_tim.o(i.HAL_TIM_Encoder_Start), (78 bytes).
    Removing stm32f4xx_hal_tim.o(i.HAL_TIM_Encoder_Start_DMA), (380 bytes).
    Removing stm32f4xx_hal_tim.o(i.HAL_TIM_Encoder_Start_IT), (126 bytes).
    Removing stm32f4xx_hal_tim.o(i.HAL_TIM_Encoder_Stop), (104 bytes).
    Removing stm32f4xx_hal_tim.o(i.HAL_TIM_Encoder_Stop_DMA), (176 bytes).
    Removing stm32f4xx_hal_tim.o(i.HAL_TIM_Encoder_Stop_IT), (152 bytes).
    Removing stm32f4xx_hal_tim.o(i.HAL_TIM_ErrorCallback), (2 bytes).
    Removing stm32f4xx_hal_tim.o(i.HAL_TIM_GenerateEvent), (54 bytes).
    Removing stm32f4xx_hal_tim.o(i.HAL_TIM_IC_CaptureCallback), (2 bytes).
    Removing stm32f4xx_hal_tim.o(i.HAL_TIM_IC_CaptureHalfCpltCallback), (2 bytes).
    Removing stm32f4xx_hal_tim.o(i.HAL_TIM_IC_DeInit), (70 bytes).
    Removing stm32f4xx_hal_tim.o(i.HAL_TIM_IC_GetState), (8 bytes).
    Removing stm32f4xx_hal_tim.o(i.HAL_TIM_IC_MspDeInit), (2 bytes).
    Removing stm32f4xx_hal_tim.o(i.HAL_TIM_IC_MspInit), (2 bytes).
    Removing stm32f4xx_hal_tim.o(i.HAL_TIM_IC_Start), (44 bytes).
    Removing stm32f4xx_hal_tim.o(i.HAL_TIM_IC_Start_DMA), (332 bytes).
    Removing stm32f4xx_hal_tim.o(i.HAL_TIM_IC_Stop), (58 bytes).
    Removing stm32f4xx_hal_tim.o(i.HAL_TIM_IC_Stop_DMA), (164 bytes).
    Removing stm32f4xx_hal_tim.o(i.HAL_TIM_IC_Stop_IT), (134 bytes).
    Removing stm32f4xx_hal_tim.o(i.HAL_TIM_OC_DeInit), (70 bytes).
    Removing stm32f4xx_hal_tim.o(i.HAL_TIM_OC_DelayElapsedCallback), (2 bytes).
    Removing stm32f4xx_hal_tim.o(i.HAL_TIM_OC_GetState), (8 bytes).
    Removing stm32f4xx_hal_tim.o(i.HAL_TIM_OC_MspDeInit), (2 bytes).
    Removing stm32f4xx_hal_tim.o(i.HAL_TIM_OC_Start), (88 bytes).
    Removing stm32f4xx_hal_tim.o(i.HAL_TIM_OC_Start_DMA), (376 bytes).
    Removing stm32f4xx_hal_tim.o(i.HAL_TIM_OC_Stop), (128 bytes).
    Removing stm32f4xx_hal_tim.o(i.HAL_TIM_OC_Stop_DMA), (236 bytes).
    Removing stm32f4xx_hal_tim.o(i.HAL_TIM_OC_Stop_IT), (204 bytes).
    Removing stm32f4xx_hal_tim.o(i.HAL_TIM_OnePulse_ConfigChannel), (286 bytes).
    Removing stm32f4xx_hal_tim.o(i.HAL_TIM_OnePulse_DeInit), (70 bytes).
    Removing stm32f4xx_hal_tim.o(i.HAL_TIM_OnePulse_GetState), (8 bytes).
    Removing stm32f4xx_hal_tim.o(i.HAL_TIM_OnePulse_Init), (76 bytes).
    Removing stm32f4xx_hal_tim.o(i.HAL_TIM_OnePulse_MspDeInit), (2 bytes).
    Removing stm32f4xx_hal_tim.o(i.HAL_TIM_OnePulse_MspInit), (2 bytes).
    Removing stm32f4xx_hal_tim.o(i.HAL_TIM_OnePulse_Start), (76 bytes).
    Removing stm32f4xx_hal_tim.o(i.HAL_TIM_OnePulse_Start_IT), (100 bytes).
    Removing stm32f4xx_hal_tim.o(i.HAL_TIM_OnePulse_Stop), (140 bytes).
    Removing stm32f4xx_hal_tim.o(i.HAL_TIM_OnePulse_Stop_IT), (164 bytes).
    Removing stm32f4xx_hal_tim.o(i.HAL_TIM_PWM_DeInit), (70 bytes).
    Removing stm32f4xx_hal_tim.o(i.HAL_TIM_PWM_GetState), (8 bytes).
    Removing stm32f4xx_hal_tim.o(i.HAL_TIM_PWM_MspDeInit), (2 bytes).
    Removing stm32f4xx_hal_tim.o(i.HAL_TIM_PWM_PulseFinishedHalfCpltCallback), (2 bytes).
    Removing stm32f4xx_hal_tim.o(i.HAL_TIM_PWM_Start_DMA), (376 bytes).
    Removing stm32f4xx_hal_tim.o(i.HAL_TIM_PWM_Start_IT), (164 bytes).
    Removing stm32f4xx_hal_tim.o(i.HAL_TIM_PWM_Stop), (136 bytes).
    Removing stm32f4xx_hal_tim.o(i.HAL_TIM_PWM_Stop_DMA), (236 bytes).
    Removing stm32f4xx_hal_tim.o(i.HAL_TIM_PWM_Stop_IT), (204 bytes).
    Removing stm32f4xx_hal_tim.o(i.HAL_TIM_PeriodElapsedCallback), (2 bytes).
    Removing stm32f4xx_hal_tim.o(i.HAL_TIM_PeriodElapsedHalfCpltCallback), (2 bytes).
    Removing stm32f4xx_hal_tim.o(i.HAL_TIM_SlaveConfigSynchro), (108 bytes).
    Removing stm32f4xx_hal_tim.o(i.HAL_TIM_SlaveConfigSynchro_IT), (108 bytes).
    Removing stm32f4xx_hal_tim.o(i.HAL_TIM_TriggerHalfCpltCallback), (2 bytes).
    Removing stm32f4xx_hal_tim.o(i.TIM_DMACaptureCplt), (70 bytes).
    Removing stm32f4xx_hal_tim.o(i.TIM_DMACaptureHalfCplt), (70 bytes).
    Removing stm32f4xx_hal_tim.o(i.TIM_DMADelayPulseCplt), (70 bytes).
    Removing stm32f4xx_hal_tim.o(i.TIM_DMADelayPulseHalfCplt), (70 bytes).
    Removing stm32f4xx_hal_tim.o(i.TIM_DMAError), (20 bytes).
    Removing stm32f4xx_hal_tim.o(i.TIM_DMAPeriodElapsedCplt), (20 bytes).
    Removing stm32f4xx_hal_tim.o(i.TIM_DMAPeriodElapsedHalfCplt), (20 bytes).
    Removing stm32f4xx_hal_tim.o(i.TIM_DMATriggerCplt), (20 bytes).
    Removing stm32f4xx_hal_tim.o(i.TIM_DMATriggerHalfCplt), (20 bytes).
    Removing stm32f4xx_hal_tim.o(i.TIM_SlaveTimer_SetConfig), (170 bytes).
    Removing stm32f4xx_hal_tim_ex.o(.rev16_text), (4 bytes).
    Removing stm32f4xx_hal_tim_ex.o(.revsh_text), (4 bytes).
    Removing stm32f4xx_hal_tim_ex.o(.rrx_text), (6 bytes).
    Removing stm32f4xx_hal_tim_ex.o(i.HAL_TIMEx_BreakCallback), (2 bytes).
    Removing stm32f4xx_hal_tim_ex.o(i.HAL_TIMEx_CommutHalfCpltCallback), (2 bytes).
    Removing stm32f4xx_hal_tim_ex.o(i.HAL_TIMEx_ConfigCommutEvent), (134 bytes).
    Removing stm32f4xx_hal_tim_ex.o(i.HAL_TIMEx_ConfigCommutEvent_DMA), (164 bytes).
    Removing stm32f4xx_hal_tim_ex.o(i.HAL_TIMEx_ConfigCommutEvent_IT), (134 bytes).
    Removing stm32f4xx_hal_tim_ex.o(i.HAL_TIMEx_HallSensor_DeInit), (70 bytes).
    Removing stm32f4xx_hal_tim_ex.o(i.HAL_TIMEx_HallSensor_GetState), (8 bytes).
    Removing stm32f4xx_hal_tim_ex.o(i.HAL_TIMEx_HallSensor_Init), (208 bytes).
    Removing stm32f4xx_hal_tim_ex.o(i.HAL_TIMEx_HallSensor_MspDeInit), (2 bytes).
    Removing stm32f4xx_hal_tim_ex.o(i.HAL_TIMEx_HallSensor_MspInit), (2 bytes).
    Removing stm32f4xx_hal_tim_ex.o(i.HAL_TIMEx_HallSensor_Start), (42 bytes).
    Removing stm32f4xx_hal_tim_ex.o(i.HAL_TIMEx_HallSensor_Start_DMA), (144 bytes).
    Removing stm32f4xx_hal_tim_ex.o(i.HAL_TIMEx_HallSensor_Start_IT), (54 bytes).
    Removing stm32f4xx_hal_tim_ex.o(i.HAL_TIMEx_HallSensor_Stop), (56 bytes).
    Removing stm32f4xx_hal_tim_ex.o(i.HAL_TIMEx_HallSensor_Stop_DMA), (74 bytes).
    Removing stm32f4xx_hal_tim_ex.o(i.HAL_TIMEx_HallSensor_Stop_IT), (68 bytes).
    Removing stm32f4xx_hal_tim_ex.o(i.HAL_TIMEx_OCN_Start), (56 bytes).
    Removing stm32f4xx_hal_tim_ex.o(i.HAL_TIMEx_OCN_Start_DMA), (288 bytes).
    Removing stm32f4xx_hal_tim_ex.o(i.HAL_TIMEx_OCN_Start_IT), (126 bytes).
    Removing stm32f4xx_hal_tim_ex.o(i.HAL_TIMEx_OCN_Stop), (96 bytes).
    Removing stm32f4xx_hal_tim_ex.o(i.HAL_TIMEx_OCN_Stop_DMA), (178 bytes).
    Removing stm32f4xx_hal_tim_ex.o(i.HAL_TIMEx_OCN_Stop_IT), (178 bytes).
    Removing stm32f4xx_hal_tim_ex.o(i.HAL_TIMEx_OnePulseN_Start), (32 bytes).
    Removing stm32f4xx_hal_tim_ex.o(i.HAL_TIMEx_OnePulseN_Start_IT), (56 bytes).
    Removing stm32f4xx_hal_tim_ex.o(i.HAL_TIMEx_OnePulseN_Stop), (96 bytes).
    Removing stm32f4xx_hal_tim_ex.o(i.HAL_TIMEx_OnePulseN_Stop_IT), (120 bytes).
    Removing stm32f4xx_hal_tim_ex.o(i.HAL_TIMEx_PWMN_Start_DMA), (288 bytes).
    Removing stm32f4xx_hal_tim_ex.o(i.HAL_TIMEx_PWMN_Start_IT), (126 bytes).
    Removing stm32f4xx_hal_tim_ex.o(i.HAL_TIMEx_PWMN_Stop), (96 bytes).
    Removing stm32f4xx_hal_tim_ex.o(i.HAL_TIMEx_PWMN_Stop_DMA), (178 bytes).
    Removing stm32f4xx_hal_tim_ex.o(i.HAL_TIMEx_PWMN_Stop_IT), (178 bytes).
    Removing stm32f4xx_hal_tim_ex.o(i.HAL_TIMEx_RemapConfig), (42 bytes).
    Removing stm32f4xx_hal_tim_ex.o(i.TIMEx_DMACommutationCplt), (20 bytes).
    Removing stm32f4xx_hal_tim_ex.o(i.TIMEx_DMACommutationHalfCplt), (20 bytes).
    Removing stm32f4xx_hal_uart.o(.rev16_text), (4 bytes).
    Removing stm32f4xx_hal_uart.o(.revsh_text), (4 bytes).
    Removing stm32f4xx_hal_uart.o(.rrx_text), (6 bytes).
    Removing stm32f4xx_hal_uart.o(i.HAL_HalfDuplex_EnableReceiver), (68 bytes).
    Removing stm32f4xx_hal_uart.o(i.HAL_HalfDuplex_EnableTransmitter), (68 bytes).
    Removing stm32f4xx_hal_uart.o(i.HAL_HalfDuplex_Init), (118 bytes).
    Removing stm32f4xx_hal_uart.o(i.HAL_LIN_Init), (142 bytes).
    Removing stm32f4xx_hal_uart.o(i.HAL_LIN_SendBreak), (62 bytes).
    Removing stm32f4xx_hal_uart.o(i.HAL_MultiProcessor_EnterMuteMode), (62 bytes).
    Removing stm32f4xx_hal_uart.o(i.HAL_MultiProcessor_ExitMuteMode), (62 bytes).
    Removing stm32f4xx_hal_uart.o(i.HAL_MultiProcessor_Init), (154 bytes).
    Removing stm32f4xx_hal_uart.o(i.HAL_UART_Abort), (170 bytes).
    Removing stm32f4xx_hal_uart.o(i.HAL_UART_AbortCpltCallback), (2 bytes).
    Removing stm32f4xx_hal_uart.o(i.HAL_UART_AbortReceive), (102 bytes).
    Removing stm32f4xx_hal_uart.o(i.HAL_UART_AbortReceiveCpltCallback), (2 bytes).
    Removing stm32f4xx_hal_uart.o(i.HAL_UART_AbortReceive_IT), (120 bytes).
    Removing stm32f4xx_hal_uart.o(i.HAL_UART_AbortTransmit), (90 bytes).
    Removing stm32f4xx_hal_uart.o(i.HAL_UART_AbortTransmitCpltCallback), (2 bytes).
    Removing stm32f4xx_hal_uart.o(i.HAL_UART_AbortTransmit_IT), (108 bytes).
    Removing stm32f4xx_hal_uart.o(i.HAL_UART_Abort_IT), (224 bytes).
    Removing stm32f4xx_hal_uart.o(i.HAL_UART_DMAPause), (124 bytes).
    Removing stm32f4xx_hal_uart.o(i.HAL_UART_DMAResume), (126 bytes).
    Removing stm32f4xx_hal_uart.o(i.HAL_UART_DMAStop), (102 bytes).
    Removing stm32f4xx_hal_uart.o(i.HAL_UART_DeInit), (58 bytes).
    Removing stm32f4xx_hal_uart.o(i.HAL_UART_GetError), (6 bytes).
    Removing stm32f4xx_hal_uart.o(i.HAL_UART_GetState), (20 bytes).
    Removing stm32f4xx_hal_uart.o(i.HAL_UART_MspDeInit), (2 bytes).
    Removing stm32f4xx_hal_uart.o(i.HAL_UART_MspInit), (2 bytes).
    Removing stm32f4xx_hal_uart.o(i.HAL_UART_Receive), (224 bytes).
    Removing stm32f4xx_hal_uart.o(i.HAL_UART_Receive_DMA), (196 bytes).
    Removing stm32f4xx_hal_uart.o(i.HAL_UART_RxCpltCallback), (2 bytes).
    Removing stm32f4xx_hal_uart.o(i.HAL_UART_RxHalfCpltCallback), (2 bytes).
    Removing stm32f4xx_hal_uart.o(i.HAL_UART_Transmit_DMA), (156 bytes).
    Removing stm32f4xx_hal_uart.o(i.HAL_UART_Transmit_IT), (88 bytes).
    Removing stm32f4xx_hal_uart.o(i.HAL_UART_TxHalfCpltCallback), (2 bytes).
    Removing stm32f4xx_hal_uart.o(i.UART_DMAError), (80 bytes).
    Removing stm32f4xx_hal_uart.o(i.UART_DMAReceiveCplt), (70 bytes).
    Removing stm32f4xx_hal_uart.o(i.UART_DMARxAbortCallback), (52 bytes).
    Removing stm32f4xx_hal_uart.o(i.UART_DMARxHalfCplt), (14 bytes).
    Removing stm32f4xx_hal_uart.o(i.UART_DMARxOnlyAbortCallback), (24 bytes).
    Removing stm32f4xx_hal_uart.o(i.UART_DMATransmitCplt), (54 bytes).
    Removing stm32f4xx_hal_uart.o(i.UART_DMATxAbortCallback), (52 bytes).
    Removing stm32f4xx_hal_uart.o(i.UART_DMATxHalfCplt), (14 bytes).
    Removing stm32f4xx_hal_uart.o(i.UART_DMATxOnlyAbortCallback), (24 bytes).
    Removing stm32f4xx_hal_uart.o(i.UART_EndTxTransfer), (20 bytes).
    Removing stm32f4xx_hal_iwdg.o(.rev16_text), (4 bytes).
    Removing stm32f4xx_hal_iwdg.o(.revsh_text), (4 bytes).
    Removing stm32f4xx_hal_iwdg.o(.rrx_text), (6 bytes).
    Removing system_stm32f4xx.o(.rev16_text), (4 bytes).
    Removing system_stm32f4xx.o(.revsh_text), (4 bytes).
    Removing system_stm32f4xx.o(.rrx_text), (6 bytes).
    Removing system_stm32f4xx.o(i.SystemCoreClockUpdate), (192 bytes).
    Removing function.o(.rev16_text), (4 bytes).
    Removing function.o(.revsh_text), (4 bytes).
    Removing function.o(.rrx_text), (6 bytes).
    Removing function.o(i.DisplayErrLed), (1304 bytes).
    Removing function.o(i.LEDSet), (416 bytes).
    Removing mc_pid_regulators.o(.rev16_text), (4 bytes).
    Removing mc_pid_regulators.o(.revsh_text), (4 bytes).
    Removing mc_pid_regulators.o(.rrx_text), (6 bytes).
    Removing mc_pid_regulators.o(.data), (4 bytes).
    Removing bsp_bdcmotor.o(.rev16_text), (4 bytes).
    Removing bsp_bdcmotor.o(.revsh_text), (4 bytes).
    Removing bsp_bdcmotor.o(.rrx_text), (6 bytes).
    Removing bsp_bdcmotor.o(i.OneFilter), (16 bytes).
    Removing bsp_bdcmotor.o(i.SetMotorDir), (48 bytes).
    Removing bsp_iwdg.o(.rev16_text), (4 bytes).
    Removing bsp_iwdg.o(.revsh_text), (4 bytes).
    Removing bsp_iwdg.o(.rrx_text), (6 bytes).
    Removing canopen_od.o(.rev16_text), (4 bytes).
    Removing canopen_od.o(.revsh_text), (4 bytes).
    Removing canopen_od.o(.rrx_text), (6 bytes).
    Removing canopen_od.o(i.ODCallback_t_Index2000_Subindex1), (152 bytes).
    Removing canopen_od.o(i.ODCallback_t_Index2000_Subindex2), (152 bytes).
    Removing canopen_od.o(i.ODCallback_t_Index208A_Subindex0), (44 bytes).
    Removing canopen_od.o(.conststring), (262 bytes).
    Removing canopen_timer.o(.rev16_text), (4 bytes).
    Removing canopen_timer.o(.revsh_text), (4 bytes).
    Removing canopen_timer.o(.rrx_text), (6 bytes).
    Removing canopen_timer.o(i.Callbacktest), (52 bytes).
    Removing canopen_timer.o(i.Callbacktest1), (52 bytes).
    Removing canopen_timer.o(i.Callbacktest2), (52 bytes).
    Removing flash.o(.rev16_text), (4 bytes).
    Removing flash.o(.revsh_text), (4 bytes).
    Removing flash.o(.rrx_text), (6 bytes).
    Removing flash.o(i.Erase_Flash), (56 bytes).
    Removing agreement.o(.rev16_text), (4 bytes).
    Removing agreement.o(.revsh_text), (4 bytes).
    Removing agreement.o(.rrx_text), (6 bytes).
    Removing agreement.o(i.Agreement_fun3), (224 bytes).
    Removing agreement.o(i.Agreement_funEF), (224 bytes).
    Removing agreement.o(i.Agreement_funF1), (188 bytes).
    Removing agreement.o(i.Agreement_funF2), (188 bytes).
    Removing agreement.o(i.Agreement_funF3), (188 bytes).
    Removing agreement.o(i.Agreement_funF4), (188 bytes).
    Removing agreement.o(i.CheckSum), (48 bytes).
    Removing agreement.o(i.FlashRight), (44 bytes).
    Removing agreement.o(i.QuickRead), (232 bytes).
    Removing agreement.o(i.ReturnError1), (1128 bytes).
    Removing agreement.o(i.ReturnRight), (44 bytes).
    Removing agreement.o(i.Startagreement), (276 bytes).
    Removing agreement.o(i.changestartstop), (2776 bytes).
    Removing canopen_lifegrd.o(.rev16_text), (4 bytes).
    Removing canopen_lifegrd.o(.revsh_text), (4 bytes).
    Removing canopen_lifegrd.o(.rrx_text), (6 bytes).
    Removing canopen_nmt.o(.rev16_text), (4 bytes).
    Removing canopen_nmt.o(.revsh_text), (4 bytes).
    Removing canopen_nmt.o(.rrx_text), (6 bytes).
    Removing canopen_nmt.o(i._stopped), (2 bytes).
    Removing canopen_objacces.o(.rev16_text), (4 bytes).
    Removing canopen_objacces.o(.revsh_text), (4 bytes).
    Removing canopen_objacces.o(.rrx_text), (6 bytes).
    Removing canopen_objacces.o(i.OBJ_Access_Err_Record), (652 bytes).
    Removing canopen_pdo.o(.rev16_text), (4 bytes).
    Removing canopen_pdo.o(.revsh_text), (4 bytes).
    Removing canopen_pdo.o(.rrx_text), (6 bytes).
    Removing canopen_pdo.o(i.TPDO_Communication_Parameter_Callback), (118 bytes).
    Removing canopen_pdo.o(i.sendPDOrequest), (82 bytes).
    Removing canopen_sync.o(.rev16_text), (4 bytes).
    Removing canopen_sync.o(.revsh_text), (4 bytes).
    Removing canopen_sync.o(.rrx_text), (6 bytes).
    Removing canopen_sync.o(i.ResrtSync), (2 bytes).
    Removing canopen_emcy.o(.rev16_text), (4 bytes).
    Removing canopen_emcy.o(.revsh_text), (4 bytes).
    Removing canopen_emcy.o(.rrx_text), (6 bytes).
    Removing canopen_emcy.o(i.EMCY_errorRecovered), (120 bytes).
    Removing canopen_emcy.o(i.EMCY_setError), (230 bytes).
    Removing canopen_emcy.o(i.EmcyMsg_TransREQ), (56 bytes).
    Removing canopen_emcy.o(i.EmcyMsg_TransSet), (14 bytes).
    Removing canopen_emcy.o(i.SendEmcy), (130 bytes).
    Removing canopen_sdo.o(.rev16_text), (4 bytes).
    Removing canopen_sdo.o(.revsh_text), (4 bytes).
    Removing canopen_sdo.o(.rrx_text), (6 bytes).
    Removing canopen_sdo.o(i.closeSDOtransfer), (4 bytes).
    Removing canopen_sdo.o(i.getSDOlineToClose), (54 bytes).
    Removing dadd.o(.text), (334 bytes).
    Removing ddiv.o(.text), (222 bytes).
    Removing dfixul.o(.text), (48 bytes).

483 unused section(s) (total 47698 bytes) removed from the image.

==============================================================================

Image Symbol Table

    Local Symbols

    Symbol Name                              Value     Ov Type        Size  Object(Section)

    ../Drivers/STM32F4xx_HAL_Driver/Src/stm32f4xx_hal.c 0x00000000   Number         0  stm32f4xx_hal.o ABSOLUTE
    ../Drivers/STM32F4xx_HAL_Driver/Src/stm32f4xx_hal_adc.c 0x00000000   Number         0  stm32f4xx_hal_adc.o ABSOLUTE
    ../Drivers/STM32F4xx_HAL_Driver/Src/stm32f4xx_hal_adc_ex.c 0x00000000   Number         0  stm32f4xx_hal_adc_ex.o ABSOLUTE
    ../Drivers/STM32F4xx_HAL_Driver/Src/stm32f4xx_hal_can.c 0x00000000   Number         0  stm32f4xx_hal_can.o ABSOLUTE
    ../Drivers/STM32F4xx_HAL_Driver/Src/stm32f4xx_hal_cortex.c 0x00000000   Number         0  stm32f4xx_hal_cortex.o ABSOLUTE
    ../Drivers/STM32F4xx_HAL_Driver/Src/stm32f4xx_hal_dma.c 0x00000000   Number         0  stm32f4xx_hal_dma.o ABSOLUTE
    ../Drivers/STM32F4xx_HAL_Driver/Src/stm32f4xx_hal_dma_ex.c 0x00000000   Number         0  stm32f4xx_hal_dma_ex.o ABSOLUTE
    ../Drivers/STM32F4xx_HAL_Driver/Src/stm32f4xx_hal_exti.c 0x00000000   Number         0  stm32f4xx_hal_exti.o ABSOLUTE
    ../Drivers/STM32F4xx_HAL_Driver/Src/stm32f4xx_hal_flash.c 0x00000000   Number         0  stm32f4xx_hal_flash.o ABSOLUTE
    ../Drivers/STM32F4xx_HAL_Driver/Src/stm32f4xx_hal_flash_ex.c 0x00000000   Number         0  stm32f4xx_hal_flash_ex.o ABSOLUTE
    ../Drivers/STM32F4xx_HAL_Driver/Src/stm32f4xx_hal_flash_ramfunc.c 0x00000000   Number         0  stm32f4xx_hal_flash_ramfunc.o ABSOLUTE
    ../Drivers/STM32F4xx_HAL_Driver/Src/stm32f4xx_hal_gpio.c 0x00000000   Number         0  stm32f4xx_hal_gpio.o ABSOLUTE
    ../Drivers/STM32F4xx_HAL_Driver/Src/stm32f4xx_hal_pwr.c 0x00000000   Number         0  stm32f4xx_hal_pwr.o ABSOLUTE
    ../Drivers/STM32F4xx_HAL_Driver/Src/stm32f4xx_hal_pwr_ex.c 0x00000000   Number         0  stm32f4xx_hal_pwr_ex.o ABSOLUTE
    ../Drivers/STM32F4xx_HAL_Driver/Src/stm32f4xx_hal_rcc.c 0x00000000   Number         0  stm32f4xx_hal_rcc.o ABSOLUTE
    ../Drivers/STM32F4xx_HAL_Driver/Src/stm32f4xx_hal_rcc_ex.c 0x00000000   Number         0  stm32f4xx_hal_rcc_ex.o ABSOLUTE
    ../Drivers/STM32F4xx_HAL_Driver/Src/stm32f4xx_hal_tim.c 0x00000000   Number         0  stm32f4xx_hal_tim.o ABSOLUTE
    ../Drivers/STM32F4xx_HAL_Driver/Src/stm32f4xx_hal_tim_ex.c 0x00000000   Number         0  stm32f4xx_hal_tim_ex.o ABSOLUTE
    ../Drivers/STM32F4xx_HAL_Driver/Src/stm32f4xx_hal_uart.c 0x00000000   Number         0  stm32f4xx_hal_uart.o ABSOLUTE
    ../Src/main.c                            0x00000000   Number         0  main.o ABSOLUTE
    ../Src/stm32f4xx_hal_msp.c               0x00000000   Number         0  stm32f4xx_hal_msp.o ABSOLUTE
    ../Src/stm32f4xx_it.c                    0x00000000   Number         0  stm32f4xx_it.o ABSOLUTE
    ../Src/system_stm32f4xx.c                0x00000000   Number         0  system_stm32f4xx.o ABSOLUTE
    ../clib/../cmprslib/zerorunl2.c          0x00000000   Number         0  __dczerorl2.o ABSOLUTE
    ../clib/microlib/division.c              0x00000000   Number         0  uldiv.o ABSOLUTE
    ../clib/microlib/division.c              0x00000000   Number         0  uidiv.o ABSOLUTE
    ../clib/microlib/init/entry.s            0x00000000   Number         0  entry9b.o ABSOLUTE
    ../clib/microlib/init/entry.s            0x00000000   Number         0  entry11b.o ABSOLUTE
    ../clib/microlib/init/entry.s            0x00000000   Number         0  entry2.o ABSOLUTE
    ../clib/microlib/init/entry.s            0x00000000   Number         0  entry5.o ABSOLUTE
    ../clib/microlib/init/entry.s            0x00000000   Number         0  entry7a.o ABSOLUTE
    ../clib/microlib/init/entry.s            0x00000000   Number         0  entry10a.o ABSOLUTE
    ../clib/microlib/init/entry.s            0x00000000   Number         0  entry7b.o ABSOLUTE
    ../clib/microlib/init/entry.s            0x00000000   Number         0  entry11a.o ABSOLUTE
    ../clib/microlib/init/entry.s            0x00000000   Number         0  entry.o ABSOLUTE
    ../clib/microlib/init/entry.s            0x00000000   Number         0  entry10b.o ABSOLUTE
    ../clib/microlib/init/entry.s            0x00000000   Number         0  entry8a.o ABSOLUTE
    ../clib/microlib/init/entry.s            0x00000000   Number         0  entry8b.o ABSOLUTE
    ../clib/microlib/init/entry.s            0x00000000   Number         0  entry9a.o ABSOLUTE
    ../clib/microlib/longlong.c              0x00000000   Number         0  llshl.o ABSOLUTE
    ../clib/microlib/longlong.c              0x00000000   Number         0  llsshr.o ABSOLUTE
    ../clib/microlib/longlong.c              0x00000000   Number         0  llushr.o ABSOLUTE
    ../clib/microlib/printf/printf.c         0x00000000   Number         0  printf5.o ABSOLUTE
    ../clib/microlib/printf/printf.c         0x00000000   Number         0  printf6.o ABSOLUTE
    ../clib/microlib/printf/printf.c         0x00000000   Number         0  printf7.o ABSOLUTE
    ../clib/microlib/printf/printf.c         0x00000000   Number         0  printf8.o ABSOLUTE
    ../clib/microlib/printf/printf.c         0x00000000   Number         0  printfa.o ABSOLUTE
    ../clib/microlib/printf/printf.c         0x00000000   Number         0  printf0.o ABSOLUTE
    ../clib/microlib/printf/printf.c         0x00000000   Number         0  printf4.o ABSOLUTE
    ../clib/microlib/printf/printf.c         0x00000000   Number         0  printfb.o ABSOLUTE
    ../clib/microlib/printf/printf.c         0x00000000   Number         0  printf2.o ABSOLUTE
    ../clib/microlib/printf/printf.c         0x00000000   Number         0  printf1.o ABSOLUTE
    ../clib/microlib/printf/printf.c         0x00000000   Number         0  printf3.o ABSOLUTE
    ../clib/microlib/printf/stubs.s          0x00000000   Number         0  stubs.o ABSOLUTE
    ../clib/microlib/stdio/streams.c         0x00000000   Number         0  stdout.o ABSOLUTE
    ../clib/microlib/string/memcmp.c         0x00000000   Number         0  memcmp.o ABSOLUTE
    ../clib/microlib/string/memcpy.c         0x00000000   Number         0  memcpyb.o ABSOLUTE
    ../clib/microlib/string/memcpy.c         0x00000000   Number         0  memcpya.o ABSOLUTE
    ../clib/microlib/string/memset.c         0x00000000   Number         0  memseta.o ABSOLUTE
    ../clib/microlib/stubs.s                 0x00000000   Number         0  iusefp.o ABSOLUTE
    ../fplib/microlib/f2d.c                  0x00000000   Number         0  f2d.o ABSOLUTE
    ../fplib/microlib/fpadd.c                0x00000000   Number         0  dadd.o ABSOLUTE
    ../fplib/microlib/fpdiv.c                0x00000000   Number         0  ddiv.o ABSOLUTE
    ../fplib/microlib/fpepilogue.c           0x00000000   Number         0  depilogue.o ABSOLUTE
    ../fplib/microlib/fpfix.c                0x00000000   Number         0  dfixi.o ABSOLUTE
    ../fplib/microlib/fpfix.c                0x00000000   Number         0  dfixul.o ABSOLUTE
    ../fplib/microlib/fpflt.c                0x00000000   Number         0  dflti.o ABSOLUTE
    ../fplib/microlib/fpmul.c                0x00000000   Number         0  dmul.o ABSOLUTE
    ..\Agreement\Agreement.c                 0x00000000   Number         0  agreement.o ABSOLUTE
    ..\Agreement\flash.c                     0x00000000   Number         0  flash.o ABSOLUTE
    ..\CANopen\canopen_emcy.c                0x00000000   Number         0  canopen_emcy.o ABSOLUTE
    ..\CANopen\canopen_lifegrd.c             0x00000000   Number         0  canopen_lifegrd.o ABSOLUTE
    ..\CANopen\canopen_nmt.c                 0x00000000   Number         0  canopen_nmt.o ABSOLUTE
    ..\CANopen\canopen_objacces.c            0x00000000   Number         0  canopen_objacces.o ABSOLUTE
    ..\CANopen\canopen_od.c                  0x00000000   Number         0  canopen_od.o ABSOLUTE
    ..\CANopen\canopen_pdo.c                 0x00000000   Number         0  canopen_pdo.o ABSOLUTE
    ..\CANopen\canopen_sdo.c                 0x00000000   Number         0  canopen_sdo.o ABSOLUTE
    ..\CANopen\canopen_sync.c                0x00000000   Number         0  canopen_sync.o ABSOLUTE
    ..\CANopen\canopen_timer.c               0x00000000   Number         0  canopen_timer.o ABSOLUTE
    ..\Drivers\CMSIS\Device\ST\STM32F4xx\Source\Templates\arm\startup_stm32f407xx.s 0x00000000   Number         0  startup_stm32f407xx.o ABSOLUTE
    ..\Drivers\STM32F4xx_HAL_Driver\Src\stm32f4xx_hal.c 0x00000000   Number         0  stm32f4xx_hal.o ABSOLUTE
    ..\Drivers\STM32F4xx_HAL_Driver\Src\stm32f4xx_hal_adc.c 0x00000000   Number         0  stm32f4xx_hal_adc.o ABSOLUTE
    ..\Drivers\STM32F4xx_HAL_Driver\Src\stm32f4xx_hal_adc_ex.c 0x00000000   Number         0  stm32f4xx_hal_adc_ex.o ABSOLUTE
    ..\Drivers\STM32F4xx_HAL_Driver\Src\stm32f4xx_hal_can.c 0x00000000   Number         0  stm32f4xx_hal_can.o ABSOLUTE
    ..\Drivers\STM32F4xx_HAL_Driver\Src\stm32f4xx_hal_cortex.c 0x00000000   Number         0  stm32f4xx_hal_cortex.o ABSOLUTE
    ..\Drivers\STM32F4xx_HAL_Driver\Src\stm32f4xx_hal_dma.c 0x00000000   Number         0  stm32f4xx_hal_dma.o ABSOLUTE
    ..\Drivers\STM32F4xx_HAL_Driver\Src\stm32f4xx_hal_dma_ex.c 0x00000000   Number         0  stm32f4xx_hal_dma_ex.o ABSOLUTE
    ..\Drivers\STM32F4xx_HAL_Driver\Src\stm32f4xx_hal_exti.c 0x00000000   Number         0  stm32f4xx_hal_exti.o ABSOLUTE
    ..\Drivers\STM32F4xx_HAL_Driver\Src\stm32f4xx_hal_flash.c 0x00000000   Number         0  stm32f4xx_hal_flash.o ABSOLUTE
    ..\Drivers\STM32F4xx_HAL_Driver\Src\stm32f4xx_hal_flash_ex.c 0x00000000   Number         0  stm32f4xx_hal_flash_ex.o ABSOLUTE
    ..\Drivers\STM32F4xx_HAL_Driver\Src\stm32f4xx_hal_flash_ramfunc.c 0x00000000   Number         0  stm32f4xx_hal_flash_ramfunc.o ABSOLUTE
    ..\Drivers\STM32F4xx_HAL_Driver\Src\stm32f4xx_hal_gpio.c 0x00000000   Number         0  stm32f4xx_hal_gpio.o ABSOLUTE
    ..\Drivers\STM32F4xx_HAL_Driver\Src\stm32f4xx_hal_iwdg.c 0x00000000   Number         0  stm32f4xx_hal_iwdg.o ABSOLUTE
    ..\Drivers\STM32F4xx_HAL_Driver\Src\stm32f4xx_hal_pwr.c 0x00000000   Number         0  stm32f4xx_hal_pwr.o ABSOLUTE
    ..\Drivers\STM32F4xx_HAL_Driver\Src\stm32f4xx_hal_pwr_ex.c 0x00000000   Number         0  stm32f4xx_hal_pwr_ex.o ABSOLUTE
    ..\Drivers\STM32F4xx_HAL_Driver\Src\stm32f4xx_hal_rcc.c 0x00000000   Number         0  stm32f4xx_hal_rcc.o ABSOLUTE
    ..\Drivers\STM32F4xx_HAL_Driver\Src\stm32f4xx_hal_rcc_ex.c 0x00000000   Number         0  stm32f4xx_hal_rcc_ex.o ABSOLUTE
    ..\Drivers\STM32F4xx_HAL_Driver\Src\stm32f4xx_hal_tim.c 0x00000000   Number         0  stm32f4xx_hal_tim.o ABSOLUTE
    ..\Drivers\STM32F4xx_HAL_Driver\Src\stm32f4xx_hal_tim_ex.c 0x00000000   Number         0  stm32f4xx_hal_tim_ex.o ABSOLUTE
    ..\Drivers\STM32F4xx_HAL_Driver\Src\stm32f4xx_hal_uart.c 0x00000000   Number         0  stm32f4xx_hal_uart.o ABSOLUTE
    ..\Src\BDC\bsp_BDCMotor.c                0x00000000   Number         0  bsp_bdcmotor.o ABSOLUTE
    ..\Src\BDC\bsp_iwdg.c                    0x00000000   Number         0  bsp_iwdg.o ABSOLUTE
    ..\Src\Function.c                        0x00000000   Number         0  function.o ABSOLUTE
    ..\Src\MC_PID_regulators.c               0x00000000   Number         0  mc_pid_regulators.o ABSOLUTE
    ..\Src\main.c                            0x00000000   Number         0  main.o ABSOLUTE
    ..\Src\stm32f4xx_hal_msp.c               0x00000000   Number         0  stm32f4xx_hal_msp.o ABSOLUTE
    ..\Src\stm32f4xx_it.c                    0x00000000   Number         0  stm32f4xx_it.o ABSOLUTE
    ..\Src\system_stm32f4xx.c                0x00000000   Number         0  system_stm32f4xx.o ABSOLUTE
    ..\\Agreement\\Agreement.c               0x00000000   Number         0  agreement.o ABSOLUTE
    ..\\Agreement\\flash.c                   0x00000000   Number         0  flash.o ABSOLUTE
    ..\\CANopen\\canopen_emcy.c              0x00000000   Number         0  canopen_emcy.o ABSOLUTE
    ..\\CANopen\\canopen_lifegrd.c           0x00000000   Number         0  canopen_lifegrd.o ABSOLUTE
    ..\\CANopen\\canopen_nmt.c               0x00000000   Number         0  canopen_nmt.o ABSOLUTE
    ..\\CANopen\\canopen_objacces.c          0x00000000   Number         0  canopen_objacces.o ABSOLUTE
    ..\\CANopen\\canopen_od.c                0x00000000   Number         0  canopen_od.o ABSOLUTE
    ..\\CANopen\\canopen_pdo.c               0x00000000   Number         0  canopen_pdo.o ABSOLUTE
    ..\\CANopen\\canopen_sdo.c               0x00000000   Number         0  canopen_sdo.o ABSOLUTE
    ..\\CANopen\\canopen_sync.c              0x00000000   Number         0  canopen_sync.o ABSOLUTE
    ..\\CANopen\\canopen_timer.c             0x00000000   Number         0  canopen_timer.o ABSOLUTE
    ..\\Drivers\\STM32F4xx_HAL_Driver\\Src\\stm32f4xx_hal_iwdg.c 0x00000000   Number         0  stm32f4xx_hal_iwdg.o ABSOLUTE
    ..\\Src\\BDC\\bsp_BDCMotor.c             0x00000000   Number         0  bsp_bdcmotor.o ABSOLUTE
    ..\\Src\\BDC\\bsp_iwdg.c                 0x00000000   Number         0  bsp_iwdg.o ABSOLUTE
    ..\\Src\\Function.c                      0x00000000   Number         0  function.o ABSOLUTE
    ..\\Src\\MC_PID_regulators.c             0x00000000   Number         0  mc_pid_regulators.o ABSOLUTE
    cdcmple.s                                0x00000000   Number         0  cdcmple.o ABSOLUTE
    cdrcmple.s                               0x00000000   Number         0  cdrcmple.o ABSOLUTE
    dc.s                                     0x00000000   Number         0  dc.o ABSOLUTE
    handlers.s                               0x00000000   Number         0  handlers.o ABSOLUTE
    init.s                                   0x00000000   Number         0  init.o ABSOLUTE
    RESET                                    0x08000000   Section      392  startup_stm32f407xx.o(RESET)
    .ARM.Collect$$$$00000000                 0x08000188   Section        0  entry.o(.ARM.Collect$$$$00000000)
    .ARM.Collect$$$$00000001                 0x08000188   Section        4  entry2.o(.ARM.Collect$$$$00000001)
    .ARM.Collect$$$$00000004                 0x0800018c   Section        4  entry5.o(.ARM.Collect$$$$00000004)
    .ARM.Collect$$$$00000008                 0x08000190   Section        0  entry7b.o(.ARM.Collect$$$$00000008)
    .ARM.Collect$$$$0000000A                 0x08000190   Section        0  entry8b.o(.ARM.Collect$$$$0000000A)
    .ARM.Collect$$$$0000000B                 0x08000190   Section        8  entry9a.o(.ARM.Collect$$$$0000000B)
    .ARM.Collect$$$$0000000D                 0x08000198   Section        0  entry10a.o(.ARM.Collect$$$$0000000D)
    .ARM.Collect$$$$0000000F                 0x08000198   Section        0  entry11a.o(.ARM.Collect$$$$0000000F)
    .ARM.Collect$$$$00002712                 0x08000198   Section        4  entry2.o(.ARM.Collect$$$$00002712)
    __lit__00000000                          0x08000198   Data           4  entry2.o(.ARM.Collect$$$$00002712)
    .text                                    0x0800019c   Section       36  startup_stm32f407xx.o(.text)
    $v0                                      0x0800019c   Number         0  startup_stm32f407xx.o(.text)
    .text                                    0x080001c0   Section        0  uldiv.o(.text)
    .text                                    0x08000222   Section        0  memcpya.o(.text)
    .text                                    0x08000246   Section        0  memseta.o(.text)
    .text                                    0x0800026a   Section        0  memcmp.o(.text)
    .text                                    0x08000284   Section        0  dmul.o(.text)
    .text                                    0x08000368   Section        0  dflti.o(.text)
    .text                                    0x0800038a   Section        0  dfixi.o(.text)
    .text                                    0x080003c8   Section        0  f2d.o(.text)
    .text                                    0x080003f0   Section       48  cdcmple.o(.text)
    .text                                    0x08000420   Section       48  cdrcmple.o(.text)
    .text                                    0x08000450   Section        0  uidiv.o(.text)
    .text                                    0x0800047c   Section        0  llshl.o(.text)
    .text                                    0x0800049a   Section        0  llushr.o(.text)
    .text                                    0x080004ba   Section        0  depilogue.o(.text)
    .text                                    0x080004ba   Section        0  iusefp.o(.text)
    .text                                    0x08000574   Section       36  init.o(.text)
    .text                                    0x08000598   Section        0  __dczerorl2.o(.text)
    i.ADC_DMAConvCplt                        0x080005ee   Section        0  stm32f4xx_hal_adc.o(i.ADC_DMAConvCplt)
    ADC_DMAConvCplt                          0x080005ef   Thumb Code   126  stm32f4xx_hal_adc.o(i.ADC_DMAConvCplt)
    i.ADC_DMAError                           0x0800066c   Section        0  stm32f4xx_hal_adc.o(i.ADC_DMAError)
    ADC_DMAError                             0x0800066d   Thumb Code    26  stm32f4xx_hal_adc.o(i.ADC_DMAError)
    i.ADC_DMAHalfConvCplt                    0x08000686   Section        0  stm32f4xx_hal_adc.o(i.ADC_DMAHalfConvCplt)
    ADC_DMAHalfConvCplt                      0x08000687   Thumb Code    14  stm32f4xx_hal_adc.o(i.ADC_DMAHalfConvCplt)
    i.ADC_IRQHandler                         0x08000694   Section        0  stm32f4xx_it.o(i.ADC_IRQHandler)
    i.ADC_Init                               0x080006a4   Section        0  stm32f4xx_hal_adc.o(i.ADC_Init)
    ADC_Init                                 0x080006a5   Thumb Code   344  stm32f4xx_hal_adc.o(i.ADC_Init)
    i.BLDC1_OverSpdChk                       0x08000804   Section        0  function.o(i.BLDC1_OverSpdChk)
    i.BLDC1_PhaseChange                      0x08000900   Section        0  bsp_bdcmotor.o(i.BLDC1_PhaseChange)
    i.BLDC2_OverSpdChk                       0x08000a68   Section        0  function.o(i.BLDC2_OverSpdChk)
    i.BLDC2_PhaseChange                      0x08000b68   Section        0  bsp_bdcmotor.o(i.BLDC2_PhaseChange)
    i.BLDC5_Phase_Check                      0x08000d04   Section        0  function.o(i.BLDC5_Phase_Check)
    i.BLDC6_Phase_Check                      0x08000da0   Section        0  function.o(i.BLDC6_Phase_Check)
    i.BLDC_Stuck_Chk                         0x08000e3c   Section        0  function.o(i.BLDC_Stuck_Chk)
    i.BubbleSort                             0x08000fbc   Section        0  function.o(i.BubbleSort)
    i.BusFault_Handler                       0x0800102a   Section        0  stm32f4xx_it.o(i.BusFault_Handler)
    i.CAN1_Send_Msg                          0x08001030   Section        0  main.o(i.CAN1_Send_Msg)
    i.CAN2_RX0_IRQHandler                    0x080010b4   Section        0  stm32f4xx_it.o(i.CAN2_RX0_IRQHandler)
    i.CAN_Receive_IT                         0x080010c4   Section        0  stm32f4xx_hal_can.o(i.CAN_Receive_IT)
    CAN_Receive_IT                           0x080010c5   Thumb Code   438  stm32f4xx_hal_can.o(i.CAN_Receive_IT)
    i.CAN_Transmit_IT                        0x0800127a   Section        0  stm32f4xx_hal_can.o(i.CAN_Transmit_IT)
    CAN_Transmit_IT                          0x0800127b   Thumb Code    98  stm32f4xx_hal_can.o(i.CAN_Transmit_IT)
    i.CANopen_Parameter_Init                 0x080012dc   Section        0  canopen_od.o(i.CANopen_Parameter_Init)
    i.ConsumerHeartbeatAlarm                 0x08001374   Section        0  canopen_lifegrd.o(i.ConsumerHeartbeatAlarm)
    i.CopyBits                               0x0800139a   Section        0  canopen_pdo.o(i.CopyBits)
    i.CurrentLimit                           0x08001434   Section        0  function.o(i.CurrentLimit)
    i.DMA2_Stream0_IRQHandler                0x0800174c   Section        0  stm32f4xx_it.o(i.DMA2_Stream0_IRQHandler)
    i.DMA_CalcBaseAndBitshift                0x0800175c   Section        0  stm32f4xx_hal_dma.o(i.DMA_CalcBaseAndBitshift)
    DMA_CalcBaseAndBitshift                  0x0800175d   Thumb Code    46  stm32f4xx_hal_dma.o(i.DMA_CalcBaseAndBitshift)
    i.DMA_CheckFifoParam                     0x08001790   Section        0  stm32f4xx_hal_dma.o(i.DMA_CheckFifoParam)
    DMA_CheckFifoParam                       0x08001791   Thumb Code   170  stm32f4xx_hal_dma.o(i.DMA_CheckFifoParam)
    i.DMA_SetConfig                          0x0800183a   Section        0  stm32f4xx_hal_dma.o(i.DMA_SetConfig)
    DMA_SetConfig                            0x0800183b   Thumb Code    44  stm32f4xx_hal_dma.o(i.DMA_SetConfig)
    i.DebugMon_Handler                       0x08001866   Section        0  stm32f4xx_it.o(i.DebugMon_Handler)
    i.DelAlarm                               0x08001868   Section        0  canopen_timer.o(i.DelAlarm)
    i.EXTI0_IRQHandler                       0x080018a0   Section        0  stm32f4xx_it.o(i.EXTI0_IRQHandler)
    i.EXTI15_10_IRQHandler                   0x080018aa   Section        0  stm32f4xx_it.o(i.EXTI15_10_IRQHandler)
    i.EXTI1_IRQHandler                       0x080018d6   Section        0  stm32f4xx_it.o(i.EXTI1_IRQHandler)
    i.EXTI2_IRQHandler                       0x080018e0   Section        0  stm32f4xx_it.o(i.EXTI2_IRQHandler)
    i.EXTI3_IRQHandler                       0x080018ea   Section        0  stm32f4xx_it.o(i.EXTI3_IRQHandler)
    i.EXTI4_IRQHandler                       0x080018f4   Section        0  stm32f4xx_it.o(i.EXTI4_IRQHandler)
    i.EXTI9_5_IRQHandler                     0x080018fe   Section        0  stm32f4xx_it.o(i.EXTI9_5_IRQHandler)
    i.Error_Handler                          0x0800191c   Section        0  main.o(i.Error_Handler)
    i.FLASH_Erase_Sector                     0x08001924   Section        0  stm32f4xx_hal_flash_ex.o(i.FLASH_Erase_Sector)
    i.FLASH_FlushCaches                      0x08001980   Section        0  stm32f4xx_hal_flash_ex.o(i.FLASH_FlushCaches)
    i.FLASH_MassErase                        0x080019f8   Section        0  stm32f4xx_hal_flash_ex.o(i.FLASH_MassErase)
    FLASH_MassErase                          0x080019f9   Thumb Code    42  stm32f4xx_hal_flash_ex.o(i.FLASH_MassErase)
    i.FLASH_Program_Byte                     0x08001a28   Section        0  stm32f4xx_hal_flash.o(i.FLASH_Program_Byte)
    FLASH_Program_Byte                       0x08001a29   Thumb Code    32  stm32f4xx_hal_flash.o(i.FLASH_Program_Byte)
    i.FLASH_Program_DoubleWord               0x08001a4c   Section        0  stm32f4xx_hal_flash.o(i.FLASH_Program_DoubleWord)
    FLASH_Program_DoubleWord                 0x08001a4d   Thumb Code    56  stm32f4xx_hal_flash.o(i.FLASH_Program_DoubleWord)
    i.FLASH_Program_HalfWord                 0x08001a88   Section        0  stm32f4xx_hal_flash.o(i.FLASH_Program_HalfWord)
    FLASH_Program_HalfWord                   0x08001a89   Thumb Code    36  stm32f4xx_hal_flash.o(i.FLASH_Program_HalfWord)
    i.FLASH_Program_Word                     0x08001ab0   Section        0  stm32f4xx_hal_flash.o(i.FLASH_Program_Word)
    FLASH_Program_Word                       0x08001ab1   Thumb Code    36  stm32f4xx_hal_flash.o(i.FLASH_Program_Word)
    i.FLASH_SetErrorCode                     0x08001ad8   Section        0  stm32f4xx_hal_flash.o(i.FLASH_SetErrorCode)
    FLASH_SetErrorCode                       0x08001ad9   Thumb Code   142  stm32f4xx_hal_flash.o(i.FLASH_SetErrorCode)
    i.FLASH_WaitForLastOperation             0x08001b70   Section        0  stm32f4xx_hal_flash.o(i.FLASH_WaitForLastOperation)
    i.Flash_Read                             0x08001bd4   Section        0  flash.o(i.Flash_Read)
    i.Flash_WriteCheck                       0x08001c10   Section        0  agreement.o(i.Flash_WriteCheck)
    i.GetMotorSpeed                          0x08001c34   Section        0  bsp_bdcmotor.o(i.GetMotorSpeed)
    i.GetSector                              0x08001cac   Section        0  flash.o(i.GetSector)
    GetSector                                0x08001cad   Thumb Code   182  flash.o(i.GetSector)
    i.HALLSTUDY_PhaseChange0                 0x08001d90   Section        0  bsp_bdcmotor.o(i.HALLSTUDY_PhaseChange0)
    i.HALLSTUDY_PhaseChange1                 0x08001e00   Section        0  bsp_bdcmotor.o(i.HALLSTUDY_PhaseChange1)
    i.HALL_GetPhase2                         0x08001e70   Section        0  bsp_bdcmotor.o(i.HALL_GetPhase2)
    i.HAL_ADCEx_InjectedConvCpltCallback     0x08001ea8   Section        0  stm32f4xx_hal_adc_ex.o(i.HAL_ADCEx_InjectedConvCpltCallback)
    i.HAL_ADC_AnalogWDGConfig                0x08001eac   Section        0  stm32f4xx_hal_adc.o(i.HAL_ADC_AnalogWDGConfig)
    i.HAL_ADC_ConfigChannel                  0x08001f34   Section        0  stm32f4xx_hal_adc.o(i.HAL_ADC_ConfigChannel)
    i.HAL_ADC_ConvCpltCallback               0x080020c0   Section        0  main.o(i.HAL_ADC_ConvCpltCallback)
    i.HAL_ADC_ConvHalfCpltCallback           0x080020c2   Section        0  stm32f4xx_hal_adc.o(i.HAL_ADC_ConvHalfCpltCallback)
    i.HAL_ADC_ErrorCallback                  0x080020c4   Section        0  stm32f4xx_hal_adc.o(i.HAL_ADC_ErrorCallback)
    i.HAL_ADC_IRQHandler                     0x080020c6   Section        0  stm32f4xx_hal_adc.o(i.HAL_ADC_IRQHandler)
    i.HAL_ADC_Init                           0x0800223c   Section        0  stm32f4xx_hal_adc.o(i.HAL_ADC_Init)
    i.HAL_ADC_LevelOutOfWindowCallback       0x080022d8   Section        0  bsp_iwdg.o(i.HAL_ADC_LevelOutOfWindowCallback)
    i.HAL_ADC_MspInit                        0x08002314   Section        0  stm32f4xx_hal_msp.o(i.HAL_ADC_MspInit)
    i.HAL_ADC_Start_DMA                      0x08002414   Section        0  stm32f4xx_hal_adc.o(i.HAL_ADC_Start_DMA)
    i.HAL_CAN_ErrorCallback                  0x08002598   Section        0  stm32f4xx_hal_can.o(i.HAL_CAN_ErrorCallback)
    i.HAL_CAN_IRQHandler                     0x0800259c   Section        0  stm32f4xx_hal_can.o(i.HAL_CAN_IRQHandler)
    i.HAL_CAN_Receive_IT                     0x080027f0   Section        0  stm32f4xx_hal_can.o(i.HAL_CAN_Receive_IT)
    i.HAL_CAN_RxCpltCallback                 0x080028fc   Section        0  main.o(i.HAL_CAN_RxCpltCallback)
    i.HAL_CAN_Transmit                       0x08002964   Section        0  stm32f4xx_hal_can.o(i.HAL_CAN_Transmit)
    i.HAL_CAN_TxCpltCallback                 0x08002c1c   Section        0  stm32f4xx_hal_can.o(i.HAL_CAN_TxCpltCallback)
    i.HAL_DMA_Abort_IT                       0x08002c1e   Section        0  stm32f4xx_hal_dma.o(i.HAL_DMA_Abort_IT)
    i.HAL_DMA_IRQHandler                     0x08002c48   Section        0  stm32f4xx_hal_dma.o(i.HAL_DMA_IRQHandler)
    i.HAL_DMA_Init                           0x08002e88   Section        0  stm32f4xx_hal_dma.o(i.HAL_DMA_Init)
    i.HAL_DMA_Start_IT                       0x08002f74   Section        0  stm32f4xx_hal_dma.o(i.HAL_DMA_Start_IT)
    i.HAL_Delay                              0x08003008   Section        0  stm32f4xx_hal.o(i.HAL_Delay)
    i.HAL_FLASHEx_Erase                      0x08003030   Section        0  stm32f4xx_hal_flash_ex.o(i.HAL_FLASHEx_Erase)
    i.HAL_FLASH_Lock                         0x080030dc   Section        0  stm32f4xx_hal_flash.o(i.HAL_FLASH_Lock)
    i.HAL_FLASH_Program                      0x080030f0   Section        0  stm32f4xx_hal_flash.o(i.HAL_FLASH_Program)
    i.HAL_FLASH_Unlock                       0x08003188   Section        0  stm32f4xx_hal_flash.o(i.HAL_FLASH_Unlock)
    i.HAL_GPIO_EXTI_Callback                 0x080031bc   Section        0  stm32f4xx_it.o(i.HAL_GPIO_EXTI_Callback)
    i.HAL_GPIO_EXTI_IRQHandler               0x08003a10   Section        0  stm32f4xx_hal_gpio.o(i.HAL_GPIO_EXTI_IRQHandler)
    i.HAL_GPIO_Init                          0x08003a2c   Section        0  stm32f4xx_hal_gpio.o(i.HAL_GPIO_Init)
    i.HAL_GPIO_ReadPin                       0x08003c2c   Section        0  stm32f4xx_hal_gpio.o(i.HAL_GPIO_ReadPin)
    i.HAL_GPIO_TogglePin                     0x08003c3c   Section        0  stm32f4xx_hal_gpio.o(i.HAL_GPIO_TogglePin)
    i.HAL_GPIO_WritePin                      0x08003c4e   Section        0  stm32f4xx_hal_gpio.o(i.HAL_GPIO_WritePin)
    i.HAL_GetTick                            0x08003c5c   Section        0  stm32f4xx_hal.o(i.HAL_GetTick)
    i.HAL_IWDG_Init                          0x08003c68   Section        0  stm32f4xx_hal_iwdg.o(i.HAL_IWDG_Init)
    i.HAL_IWDG_Refresh                       0x08003cb8   Section        0  stm32f4xx_hal_iwdg.o(i.HAL_IWDG_Refresh)
    i.HAL_IncTick                            0x08003cc8   Section        0  stm32f4xx_hal.o(i.HAL_IncTick)
    i.HAL_Init                               0x08003ce0   Section        0  stm32f4xx_hal.o(i.HAL_Init)
    i.HAL_InitTick                           0x08003d1c   Section        0  stm32f4xx_hal.o(i.HAL_InitTick)
    i.HAL_MspInit                            0x08003d68   Section        0  stm32f4xx_hal_msp.o(i.HAL_MspInit)
    i.HAL_NVIC_DisableIRQ                    0x08003db8   Section        0  stm32f4xx_hal_cortex.o(i.HAL_NVIC_DisableIRQ)
    i.HAL_NVIC_EnableIRQ                     0x08003dfc   Section        0  stm32f4xx_hal_cortex.o(i.HAL_NVIC_EnableIRQ)
    i.HAL_NVIC_SetPriority                   0x08003e1c   Section        0  stm32f4xx_hal_cortex.o(i.HAL_NVIC_SetPriority)
    i.HAL_NVIC_SetPriorityGrouping           0x08003e98   Section        0  stm32f4xx_hal_cortex.o(i.HAL_NVIC_SetPriorityGrouping)
    i.HAL_RCC_ClockConfig                    0x08003ec0   Section        0  stm32f4xx_hal_rcc.o(i.HAL_RCC_ClockConfig)
    i.HAL_RCC_GetHCLKFreq                    0x08004044   Section        0  stm32f4xx_hal_rcc.o(i.HAL_RCC_GetHCLKFreq)
    i.HAL_RCC_GetPCLK1Freq                   0x08004050   Section        0  stm32f4xx_hal_rcc.o(i.HAL_RCC_GetPCLK1Freq)
    i.HAL_RCC_GetPCLK2Freq                   0x08004070   Section        0  stm32f4xx_hal_rcc.o(i.HAL_RCC_GetPCLK2Freq)
    i.HAL_RCC_GetSysClockFreq                0x08004090   Section        0  stm32f4xx_hal_rcc.o(i.HAL_RCC_GetSysClockFreq)
    i.HAL_RCC_OscConfig                      0x08004140   Section        0  stm32f4xx_hal_rcc.o(i.HAL_RCC_OscConfig)
    i.HAL_SYSTICK_CLKSourceConfig            0x080045c8   Section        0  stm32f4xx_hal_cortex.o(i.HAL_SYSTICK_CLKSourceConfig)
    i.HAL_SYSTICK_Callback                   0x080045f0   Section        0  main.o(i.HAL_SYSTICK_Callback)
    i.HAL_SYSTICK_Config                     0x08004a60   Section        0  stm32f4xx_hal_cortex.o(i.HAL_SYSTICK_Config)
    i.HAL_SYSTICK_IRQHandler                 0x08004a94   Section        0  stm32f4xx_hal_cortex.o(i.HAL_SYSTICK_IRQHandler)
    i.HAL_TIMEx_BreakCallback                0x08004a9c   Section        0  main.o(i.HAL_TIMEx_BreakCallback)
    i.HAL_TIMEx_CommutCallback               0x08004b14   Section        0  stm32f4xx_hal_tim_ex.o(i.HAL_TIMEx_CommutCallback)
    i.HAL_TIMEx_ConfigBreakDeadTime          0x08004b16   Section        0  stm32f4xx_hal_tim_ex.o(i.HAL_TIMEx_ConfigBreakDeadTime)
    i.HAL_TIMEx_MasterConfigSynchronization  0x08004b8c   Section        0  stm32f4xx_hal_tim_ex.o(i.HAL_TIMEx_MasterConfigSynchronization)
    i.HAL_TIMEx_PWMN_Start                   0x08004c40   Section        0  stm32f4xx_hal_tim_ex.o(i.HAL_TIMEx_PWMN_Start)
    i.HAL_TIM_Base_Init                      0x08004c78   Section        0  stm32f4xx_hal_tim.o(i.HAL_TIM_Base_Init)
    i.HAL_TIM_Base_MspInit                   0x08004cac   Section        0  stm32f4xx_hal_msp.o(i.HAL_TIM_Base_MspInit)
    i.HAL_TIM_Base_Start_IT                  0x08004fcc   Section        0  stm32f4xx_hal_tim.o(i.HAL_TIM_Base_Start_IT)
    i.HAL_TIM_ConfigClockSource              0x08004ff6   Section        0  stm32f4xx_hal_tim.o(i.HAL_TIM_ConfigClockSource)
    i.HAL_TIM_IC_CaptureCallback             0x08005100   Section        0  main.o(i.HAL_TIM_IC_CaptureCallback)
    i.HAL_TIM_IC_ConfigChannel               0x08005148   Section        0  stm32f4xx_hal_tim.o(i.HAL_TIM_IC_ConfigChannel)
    i.HAL_TIM_IC_Init                        0x08005228   Section        0  stm32f4xx_hal_tim.o(i.HAL_TIM_IC_Init)
    i.HAL_TIM_IC_MspInit                     0x0800525c   Section        0  stm32f4xx_hal_msp.o(i.HAL_TIM_IC_MspInit)
    i.HAL_TIM_IC_Start_IT                    0x080052f0   Section        0  stm32f4xx_hal_tim.o(i.HAL_TIM_IC_Start_IT)
    i.HAL_TIM_IRQHandler                     0x08005368   Section        0  stm32f4xx_hal_tim.o(i.HAL_TIM_IRQHandler)
    i.HAL_TIM_MspPostInit                    0x08005500   Section        0  stm32f4xx_hal_msp.o(i.HAL_TIM_MspPostInit)
    i.HAL_TIM_OC_ConfigChannel               0x0800581c   Section        0  stm32f4xx_hal_tim.o(i.HAL_TIM_OC_ConfigChannel)
    i.HAL_TIM_OC_DelayElapsedCallback        0x08005890   Section        0  main.o(i.HAL_TIM_OC_DelayElapsedCallback)
    i.HAL_TIM_OC_Init                        0x08005c08   Section        0  stm32f4xx_hal_tim.o(i.HAL_TIM_OC_Init)
    i.HAL_TIM_OC_MspInit                     0x08005c3c   Section        0  stm32f4xx_hal_tim.o(i.HAL_TIM_OC_MspInit)
    i.HAL_TIM_OC_Start_IT                    0x08005c40   Section        0  stm32f4xx_hal_tim.o(i.HAL_TIM_OC_Start_IT)
    i.HAL_TIM_PWM_ConfigChannel              0x08005ce4   Section        0  stm32f4xx_hal_tim.o(i.HAL_TIM_PWM_ConfigChannel)
    i.HAL_TIM_PWM_Init                       0x08005dec   Section        0  stm32f4xx_hal_tim.o(i.HAL_TIM_PWM_Init)
    i.HAL_TIM_PWM_MspInit                    0x08005e20   Section        0  stm32f4xx_hal_tim.o(i.HAL_TIM_PWM_MspInit)
    i.HAL_TIM_PWM_PulseFinishedCallback      0x08005e22   Section        0  stm32f4xx_hal_tim.o(i.HAL_TIM_PWM_PulseFinishedCallback)
    i.HAL_TIM_PWM_Start                      0x08005e24   Section        0  stm32f4xx_hal_tim.o(i.HAL_TIM_PWM_Start)
    i.HAL_TIM_PeriodElapsedCallback          0x08005e7c   Section        0  main.o(i.HAL_TIM_PeriodElapsedCallback)
    i.HAL_TIM_ReadCapturedValue              0x080064cc   Section        0  stm32f4xx_hal_tim.o(i.HAL_TIM_ReadCapturedValue)
    i.HAL_TIM_TriggerCallback                0x080064fe   Section        0  stm32f4xx_hal_tim.o(i.HAL_TIM_TriggerCallback)
    i.HAL_UART_ErrorCallback                 0x08006500   Section        0  stm32f4xx_hal_uart.o(i.HAL_UART_ErrorCallback)
    i.HAL_UART_IRQHandler                    0x08006504   Section        0  stm32f4xx_hal_uart.o(i.HAL_UART_IRQHandler)
    i.HAL_UART_Init                          0x08006658   Section        0  stm32f4xx_hal_uart.o(i.HAL_UART_Init)
    i.HAL_UART_MspInit                       0x080066cc   Section        0  stm32f4xx_hal_msp.o(i.HAL_UART_MspInit)
    i.HAL_UART_Receive_IT                    0x08006764   Section        0  stm32f4xx_hal_uart.o(i.HAL_UART_Receive_IT)
    i.HAL_UART_RxCpltCallback                0x080067d4   Section        0  agreement.o(i.HAL_UART_RxCpltCallback)
    i.HAL_UART_Transmit                      0x080067d6   Section        0  stm32f4xx_hal_uart.o(i.HAL_UART_Transmit)
    i.HAL_UART_TxCpltCallback                0x080068ae   Section        0  stm32f4xx_hal_uart.o(i.HAL_UART_TxCpltCallback)
    i.HallStudyHandle0                       0x080068b0   Section        0  bsp_bdcmotor.o(i.HallStudyHandle0)
    i.HallStudyHandle1                       0x080069d8   Section        0  bsp_bdcmotor.o(i.HallStudyHandle1)
    i.HardFault_Handler                      0x08006b10   Section        0  stm32f4xx_it.o(i.HardFault_Handler)
    i.HardVersion_Init                       0x08006b14   Section        0  function.o(i.HardVersion_Init)
    i.Hardware_flowCheck                     0x08006b30   Section        0  function.o(i.Hardware_flowCheck)
    i.HeartBeat_Message_Handle               0x08006c20   Section        0  canopen_lifegrd.o(i.HeartBeat_Message_Handle)
    i.Init_Drive_Para                        0x08006cec   Section        0  function.o(i.Init_Drive_Para)
    i.InternalFlash                          0x080070f4   Section        0  flash.o(i.InternalFlash)
    i.Labview_uart                           0x08007210   Section        0  main.o(i.Labview_uart)
    i.MC_ClearFault                          0x080074b8   Section        0  function.o(i.MC_ClearFault)
    i.MC_SetFault                            0x080074d8   Section        0  function.o(i.MC_SetFault)
    i.MC_SetFault1                           0x08007510   Section        0  function.o(i.MC_SetFault1)
    i.MX_ADC1_Init                           0x08007548   Section        0  main.o(i.MX_ADC1_Init)
    MX_ADC1_Init                             0x08007549   Thumb Code   398  main.o(i.MX_ADC1_Init)
    i.MX_DMA_Init                            0x080076e4   Section        0  main.o(i.MX_DMA_Init)
    MX_DMA_Init                              0x080076e5   Thumb Code    36  main.o(i.MX_DMA_Init)
    i.MX_GPIO_Init                           0x0800770c   Section        0  main.o(i.MX_GPIO_Init)
    MX_GPIO_Init                             0x0800770d   Thumb Code   482  main.o(i.MX_GPIO_Init)
    i.MX_IWDG_Init                           0x08007910   Section        0  bsp_iwdg.o(i.MX_IWDG_Init)
    i.MX_NVIC_Init                           0x08007930   Section        0  main.o(i.MX_NVIC_Init)
    MX_NVIC_Init                             0x08007931   Thumb Code   270  main.o(i.MX_NVIC_Init)
    i.MX_TIM10_Init                          0x08007a40   Section        0  main.o(i.MX_TIM10_Init)
    MX_TIM10_Init                            0x08007a41   Thumb Code   104  main.o(i.MX_TIM10_Init)
    i.MX_TIM11_Init                          0x08007ab0   Section        0  main.o(i.MX_TIM11_Init)
    MX_TIM11_Init                            0x08007ab1   Thumb Code   104  main.o(i.MX_TIM11_Init)
    i.MX_TIM12_Init                          0x08007b20   Section        0  main.o(i.MX_TIM12_Init)
    MX_TIM12_Init                            0x08007b21   Thumb Code   102  main.o(i.MX_TIM12_Init)
    i.MX_TIM1_Init                           0x08007b90   Section        0  main.o(i.MX_TIM1_Init)
    MX_TIM1_Init                             0x08007b91   Thumb Code   358  main.o(i.MX_TIM1_Init)
    i.MX_TIM2_Init                           0x08007d00   Section        0  main.o(i.MX_TIM2_Init)
    MX_TIM2_Init                             0x08007d01   Thumb Code   216  main.o(i.MX_TIM2_Init)
    i.MX_TIM3_Init                           0x08007ddc   Section        0  main.o(i.MX_TIM3_Init)
    MX_TIM3_Init                             0x08007ddd   Thumb Code   218  main.o(i.MX_TIM3_Init)
    i.MX_TIM4_Init                           0x08007ec0   Section        0  main.o(i.MX_TIM4_Init)
    MX_TIM4_Init                             0x08007ec1   Thumb Code   214  main.o(i.MX_TIM4_Init)
    i.MX_TIM5_Init                           0x08007fa0   Section        0  main.o(i.MX_TIM5_Init)
    MX_TIM5_Init                             0x08007fa1   Thumb Code   102  main.o(i.MX_TIM5_Init)
    i.MX_TIM7_Init                           0x08008010   Section        0  main.o(i.MX_TIM7_Init)
    MX_TIM7_Init                             0x08008011   Thumb Code    66  main.o(i.MX_TIM7_Init)
    i.MX_TIM8_Init                           0x0800805c   Section        0  main.o(i.MX_TIM8_Init)
    MX_TIM8_Init                             0x0800805d   Thumb Code   318  main.o(i.MX_TIM8_Init)
    i.MX_TIM9_Init                           0x080081a4   Section        0  main.o(i.MX_TIM9_Init)
    MX_TIM9_Init                             0x080081a5   Thumb Code   130  main.o(i.MX_TIM9_Init)
    i.MX_USART3_UART_Init                    0x08008230   Section        0  agreement.o(i.MX_USART3_UART_Init)
    i.MemManage_Handler                      0x08008268   Section        0  stm32f4xx_it.o(i.MemManage_Handler)
    i.MessageType_Check                      0x0800826c   Section        0  canopen_nmt.o(i.MessageType_Check)
    i.Motor5_Default_Phase_Cheek             0x080082cc   Section        0  function.o(i.Motor5_Default_Phase_Cheek)
    i.Motor6_Default_Phase_Cheek             0x08008474   Section        0  function.o(i.Motor6_Default_Phase_Cheek)
    i.Motor7_Err_Chk                         0x0800861c   Section        0  function.o(i.Motor7_Err_Chk)
    i.MotorStuckCheck                        0x0800866c   Section        0  function.o(i.MotorStuckCheck)
    i.Motor_Fault_Clear                      0x08008684   Section        0  function.o(i.Motor_Fault_Clear)
    i.NMI_Handler                            0x08008818   Section        0  stm32f4xx_it.o(i.NMI_Handler)
    i.Net_Manager_Handle                     0x0800881c   Section        0  canopen_nmt.o(i.Net_Manager_Handle)
    i.ODCallback_t_Index1010_Subindex1       0x080088cc   Section        0  canopen_od.o(i.ODCallback_t_Index1010_Subindex1)
    i.ODCallback_t_Index1016_Subindex        0x08008918   Section        0  canopen_lifegrd.o(i.ODCallback_t_Index1016_Subindex)
    i.ODCallback_t_Index2098_Subindex0       0x08008998   Section        0  canopen_od.o(i.ODCallback_t_Index2098_Subindex0)
    i.ODCallback_t_Index2099_Subindex0       0x080089cc   Section        0  canopen_od.o(i.ODCallback_t_Index2099_Subindex0)
    i.ODCallback_t_RPDO_Communicate          0x08008a1c   Section        0  canopen_pdo.o(i.ODCallback_t_RPDO_Communicate)
    i.ODCallback_t_RPDO_Map                  0x08008a70   Section        0  canopen_pdo.o(i.ODCallback_t_RPDO_Map)
    i.ODCallback_t_RPDO_MapSubindex0         0x08008b80   Section        0  canopen_pdo.o(i.ODCallback_t_RPDO_MapSubindex0)
    i.ODCallback_t_TPDO_Communicate          0x08008c34   Section        0  canopen_pdo.o(i.ODCallback_t_TPDO_Communicate)
    i.ODCallback_t_TPDO_Map                  0x08008ce4   Section        0  canopen_pdo.o(i.ODCallback_t_TPDO_Map)
    i.ODCallback_t_TPDO_MapSubindex0         0x08008da8   Section        0  canopen_pdo.o(i.ODCallback_t_TPDO_MapSubindex0)
    i.OD_Index_san                           0x08008e5c   Section        0  canopen_objacces.o(i.OD_Index_san)
    i.ObjDict_Get_Id                         0x08008e70   Section        0  canopen_od.o(i.ObjDict_Get_Id)
    i.ObjDict_scanIndexOD                    0x08009510   Section        0  canopen_od.o(i.ObjDict_scanIndexOD)
    i.ObjDict_valueRangeTest                 0x08009c38   Section        0  canopen_od.o(i.ObjDict_valueRangeTest)
    i.OnHeartbeatProducerUpdate              0x08009c54   Section        0  canopen_lifegrd.o(i.OnHeartbeatProducerUpdate)
    i.OnNumberOfErrorsUpdate                 0x08009c68   Section        0  canopen_emcy.o(i.OnNumberOfErrorsUpdate)
    i.Over_VoltageCheck                      0x08009c90   Section        0  function.o(i.Over_VoltageCheck)
    i.PDOEventTimerAlarm                     0x08009da8   Section        0  canopen_pdo.o(i.PDOEventTimerAlarm)
    i.PDOInhibitTimerAlarm                   0x08009dd4   Section        0  canopen_pdo.o(i.PDOInhibitTimerAlarm)
    i.PDOInit                                0x08009e04   Section        0  canopen_pdo.o(i.PDOInit)
    i.PDOStop                                0x08009e50   Section        0  canopen_pdo.o(i.PDOStop)
    i.PID_Init                               0x08009ec4   Section        0  mc_pid_regulators.o(i.PID_Init)
    i.PID_PWM_Init                           0x08009f6c   Section        0  mc_pid_regulators.o(i.PID_PWM_Init)
    i.PID_Regulator                          0x08009fb4   Section        0  mc_pid_regulators.o(i.PID_Regulator)
    i.PWM_Change                             0x0800a0c8   Section        0  main.o(i.PWM_Change)
    i.PendSV_Handler                         0x0800a10c   Section        0  stm32f4xx_it.o(i.PendSV_Handler)
    i.ProducerHeartbeatAlarm                 0x0800a110   Section        0  canopen_lifegrd.o(i.ProducerHeartbeatAlarm)
    i.Program_Version_Init                   0x0800a154   Section        0  function.o(i.Program_Version_Init)
    i.Push_Motor_Calibrate                   0x0800a170   Section        0  function.o(i.Push_Motor_Calibrate)
    i.Push_Motor_Cheek                       0x0800a628   Section        0  function.o(i.Push_Motor_Cheek)
    i.Push_Motor_CurSelfAdapt                0x0800a954   Section        0  function.o(i.Push_Motor_CurSelfAdapt)
    i.Push_Motor_Location_Control            0x0800aaec   Section        0  function.o(i.Push_Motor_Location_Control)
    i.Push_OverRunChk                        0x0800ac2c   Section        0  function.o(i.Push_OverRunChk)
    i.RPDO_Direct_SetODentry                 0x0800ade8   Section        0  canopen_pdo.o(i.RPDO_Direct_SetODentry)
    i.RPDO_Direct_Trans_Init                 0x0800ae66   Section        0  canopen_pdo.o(i.RPDO_Direct_Trans_Init)
    i.Ramp_PPWM                              0x0800af38   Section        0  bsp_bdcmotor.o(i.Ramp_PPWM)
    i.Ramp_Speed                             0x0800b0c8   Section        0  bsp_bdcmotor.o(i.Ramp_Speed)
    i.RegisterSetOnDentry_Callback           0x0800b23c   Section        0  canopen_objacces.o(i.RegisterSetOnDentry_Callback)
    i.SDOTimeoutAlarm                        0x0800b260   Section        0  canopen_sdo.o(i.SDOTimeoutAlarm)
    i.SDO_Email_Handler                      0x0800b2e0   Section        0  canopen_sdo.o(i.SDO_Email_Handler)
    i.SDO_Err_Record                         0x0800b9d4   Section        0  canopen_sdo.o(i.SDO_Err_Record)
    i.SDOlineToObjdict                       0x0800ba0c   Section        0  canopen_sdo.o(i.SDOlineToObjdict)
    i.SDOtoLine                              0x0800ba4e   Section        0  canopen_sdo.o(i.SDOtoLine)
    i.SVC_Handler                            0x0800ba7e   Section        0  stm32f4xx_it.o(i.SVC_Handler)
    i.SendBootUp                             0x0800ba80   Section        0  canopen_nmt.o(i.SendBootUp)
    i.SendSDO                                0x0800babc   Section        0  canopen_sdo.o(i.SendSDO)
    i.SetAlarm                               0x0800bb1c   Section        0  canopen_timer.o(i.SetAlarm)
    i.SetMotorSpeed                          0x0800bbd0   Section        0  bsp_bdcmotor.o(i.SetMotorSpeed)
    i.SetMotorStop                           0x0800c644   Section        0  bsp_bdcmotor.o(i.SetMotorStop)
    i.SetNodeId                              0x0800c838   Section        0  canopen_nmt.o(i.SetNodeId)
    i.SetState                               0x0800c94c   Section        0  canopen_nmt.o(i.SetState)
    i.StopSync                               0x0800c9e8   Section        0  canopen_sync.o(i.StopSync)
    i.Suction_motor_errhandle                0x0800ca10   Section        0  bsp_bdcmotor.o(i.Suction_motor_errhandle)
    i.SwitchCommunication_State              0x0800cb74   Section        0  canopen_nmt.o(i.SwitchCommunication_State)
    i.SysTick_Handler                        0x0800cc52   Section        0  stm32f4xx_it.o(i.SysTick_Handler)
    i.Sys_Time                               0x0800cc60   Section        0  main.o(i.Sys_Time)
    i.SystemClock_Config                     0x0800ccbc   Section        0  main.o(i.SystemClock_Config)
    i.SystemInit                             0x0800cd94   Section        0  system_stm32f4xx.o(i.SystemInit)
    i.TIM1_BRK_TIM9_IRQHandler               0x0800cdb0   Section        0  stm32f4xx_it.o(i.TIM1_BRK_TIM9_IRQHandler)
    i.TIM1_UP_TIM10_IRQHandler               0x0800cdc8   Section        0  stm32f4xx_it.o(i.TIM1_UP_TIM10_IRQHandler)
    i.TIM5_IRQHandler                        0x0800cde0   Section        0  stm32f4xx_it.o(i.TIM5_IRQHandler)
    i.TIM6_DAC_IRQHandler                    0x0800cdf0   Section        0  canopen_timer.o(i.TIM6_DAC_IRQHandler)
    i.TIM6_Init                              0x0800ce20   Section        0  canopen_timer.o(i.TIM6_Init)
    i.TIM7_IRQHandler                        0x0800ce94   Section        0  stm32f4xx_it.o(i.TIM7_IRQHandler)
    i.TIM8_BRK_TIM12_IRQHandler              0x0800cea4   Section        0  stm32f4xx_it.o(i.TIM8_BRK_TIM12_IRQHandler)
    i.TIM_Base_SetConfig                     0x0800ceb4   Section        0  stm32f4xx_hal_tim.o(i.TIM_Base_SetConfig)
    i.TIM_CCxChannelCmd                      0x0800cf8c   Section        0  stm32f4xx_hal_tim.o(i.TIM_CCxChannelCmd)
    i.TIM_CCxNChannelCmd                     0x0800cfae   Section        0  stm32f4xx_hal_tim_ex.o(i.TIM_CCxNChannelCmd)
    TIM_CCxNChannelCmd                       0x0800cfaf   Thumb Code    34  stm32f4xx_hal_tim_ex.o(i.TIM_CCxNChannelCmd)
    i.TIM_ETR_SetConfig                      0x0800cfd0   Section        0  stm32f4xx_hal_tim.o(i.TIM_ETR_SetConfig)
    i.TIM_ITRx_SetConfig                     0x0800cfe6   Section        0  stm32f4xx_hal_tim.o(i.TIM_ITRx_SetConfig)
    TIM_ITRx_SetConfig                       0x0800cfe7   Thumb Code    18  stm32f4xx_hal_tim.o(i.TIM_ITRx_SetConfig)
    i.TIM_OC1_SetConfig                      0x0800cff8   Section        0  stm32f4xx_hal_tim.o(i.TIM_OC1_SetConfig)
    TIM_OC1_SetConfig                        0x0800cff9   Thumb Code   104  stm32f4xx_hal_tim.o(i.TIM_OC1_SetConfig)
    i.TIM_OC2_SetConfig                      0x0800d068   Section        0  stm32f4xx_hal_tim.o(i.TIM_OC2_SetConfig)
    i.TIM_OC3_SetConfig                      0x0800d0e4   Section        0  stm32f4xx_hal_tim.o(i.TIM_OC3_SetConfig)
    TIM_OC3_SetConfig                        0x0800d0e5   Thumb Code   112  stm32f4xx_hal_tim.o(i.TIM_OC3_SetConfig)
    i.TIM_OC4_SetConfig                      0x0800d15c   Section        0  stm32f4xx_hal_tim.o(i.TIM_OC4_SetConfig)
    TIM_OC4_SetConfig                        0x0800d15d   Thumb Code    74  stm32f4xx_hal_tim.o(i.TIM_OC4_SetConfig)
    i.TIM_TI1_ConfigInputStage               0x0800d1b0   Section        0  stm32f4xx_hal_tim.o(i.TIM_TI1_ConfigInputStage)
    TIM_TI1_ConfigInputStage                 0x0800d1b1   Thumb Code    38  stm32f4xx_hal_tim.o(i.TIM_TI1_ConfigInputStage)
    i.TIM_TI1_SetConfig                      0x0800d1d8   Section        0  stm32f4xx_hal_tim.o(i.TIM_TI1_SetConfig)
    i.TIM_TI2_ConfigInputStage               0x0800d268   Section        0  stm32f4xx_hal_tim.o(i.TIM_TI2_ConfigInputStage)
    TIM_TI2_ConfigInputStage                 0x0800d269   Thumb Code    40  stm32f4xx_hal_tim.o(i.TIM_TI2_ConfigInputStage)
    i.TIM_TI2_SetConfig                      0x0800d290   Section        0  stm32f4xx_hal_tim.o(i.TIM_TI2_SetConfig)
    TIM_TI2_SetConfig                        0x0800d291   Thumb Code    58  stm32f4xx_hal_tim.o(i.TIM_TI2_SetConfig)
    i.TIM_TI3_SetConfig                      0x0800d2ca   Section        0  stm32f4xx_hal_tim.o(i.TIM_TI3_SetConfig)
    TIM_TI3_SetConfig                        0x0800d2cb   Thumb Code    56  stm32f4xx_hal_tim.o(i.TIM_TI3_SetConfig)
    i.TIM_TI4_SetConfig                      0x0800d302   Section        0  stm32f4xx_hal_tim.o(i.TIM_TI4_SetConfig)
    TIM_TI4_SetConfig                        0x0800d303   Thumb Code    60  stm32f4xx_hal_tim.o(i.TIM_TI4_SetConfig)
    i.TimeDispatch                           0x0800d340   Section        0  canopen_timer.o(i.TimeDispatch)
    i.TimerForCan                            0x0800d400   Section        0  canopen_timer.o(i.TimerForCan)
    i.UART_DMAAbortOnError                   0x0800d448   Section        0  stm32f4xx_hal_uart.o(i.UART_DMAAbortOnError)
    UART_DMAAbortOnError                     0x0800d449   Thumb Code    20  stm32f4xx_hal_uart.o(i.UART_DMAAbortOnError)
    i.UART_EndRxTransfer                     0x0800d45c   Section        0  stm32f4xx_hal_uart.o(i.UART_EndRxTransfer)
    UART_EndRxTransfer                       0x0800d45d   Thumb Code    32  stm32f4xx_hal_uart.o(i.UART_EndRxTransfer)
    i.UART_EndTransmit_IT                    0x0800d47c   Section        0  stm32f4xx_hal_uart.o(i.UART_EndTransmit_IT)
    UART_EndTransmit_IT                      0x0800d47d   Thumb Code    32  stm32f4xx_hal_uart.o(i.UART_EndTransmit_IT)
    i.UART_Receive_IT                        0x0800d49c   Section        0  stm32f4xx_hal_uart.o(i.UART_Receive_IT)
    UART_Receive_IT                          0x0800d49d   Thumb Code   166  stm32f4xx_hal_uart.o(i.UART_Receive_IT)
    i.UART_SetConfig                         0x0800d544   Section        0  stm32f4xx_hal_uart.o(i.UART_SetConfig)
    UART_SetConfig                           0x0800d545   Thumb Code   992  stm32f4xx_hal_uart.o(i.UART_SetConfig)
    i.UART_Transmit_IT                       0x0800d92c   Section        0  stm32f4xx_hal_uart.o(i.UART_Transmit_IT)
    UART_Transmit_IT                         0x0800d92d   Thumb Code   104  stm32f4xx_hal_uart.o(i.UART_Transmit_IT)
    i.UART_WaitOnFlagUntilTimeout            0x0800d994   Section        0  stm32f4xx_hal_uart.o(i.UART_WaitOnFlagUntilTimeout)
    UART_WaitOnFlagUntilTimeout              0x0800d995   Thumb Code   108  stm32f4xx_hal_uart.o(i.UART_WaitOnFlagUntilTimeout)
    i.USART3_IRQHandler                      0x0800da00   Section        0  stm32f4xx_it.o(i.USART3_IRQHandler)
    i.UsageFault_Handler                     0x0800da1c   Section        0  stm32f4xx_it.o(i.UsageFault_Handler)
    i.Voltage_offset_cali                    0x0800da20   Section        0  function.o(i.Voltage_offset_cali)
    i.WriteData_toFlash                      0x0800dad8   Section        0  flash.o(i.WriteData_toFlash)
    i._RPOD_SyncEvent                        0x0800db14   Section        0  canopen_pdo.o(i._RPOD_SyncEvent)
    i._RxPDO_EventTimers_Handler             0x0800dc54   Section        0  canopen_pdo.o(i._RxPDO_EventTimers_Handler)
    i.__0printf$3                            0x0800dc58   Section        0  printf3.o(i.__0printf$3)
    i.__NVIC_GetPriorityGrouping             0x0800dc78   Section        0  stm32f4xx_hal_cortex.o(i.__NVIC_GetPriorityGrouping)
    __NVIC_GetPriorityGrouping               0x0800dc79   Thumb Code    10  stm32f4xx_hal_cortex.o(i.__NVIC_GetPriorityGrouping)
    i.__NVIC_SetPriority                     0x0800dc88   Section        0  stm32f4xx_hal_cortex.o(i.__NVIC_SetPriority)
    __NVIC_SetPriority                       0x0800dc89   Thumb Code    32  stm32f4xx_hal_cortex.o(i.__NVIC_SetPriority)
    i.__scatterload_copy                     0x0800dcb0   Section       14  handlers.o(i.__scatterload_copy)
    i.__scatterload_null                     0x0800dcbe   Section        2  handlers.o(i.__scatterload_null)
    i.__scatterload_zeroinit                 0x0800dcc0   Section       14  handlers.o(i.__scatterload_zeroinit)
    i._getODentry                            0x0800dcd0   Section        0  canopen_objacces.o(i._getODentry)
    i._heartbeatError                        0x0800ddbc   Section        0  canopen_lifegrd.o(i._heartbeatError)
    i._initialisation                        0x0800ddf8   Section        0  canopen_nmt.o(i._initialisation)
    i._operational                           0x0800ddfa   Section        0  canopen_nmt.o(i._operational)
    i._post_SlaveStateChange                 0x0800ddfc   Section        0  canopen_lifegrd.o(i._post_SlaveStateChange)
    i._post_TPDO                             0x0800ddfe   Section        0  canopen_sync.o(i._post_TPDO)
    i._post_sync                             0x0800de00   Section        0  canopen_sync.o(i._post_sync)
    i._preOperational                        0x0800de02   Section        0  canopen_nmt.o(i._preOperational)
    i._printf_core                           0x0800de04   Section        0  printf3.o(i._printf_core)
    _printf_core                             0x0800de05   Thumb Code   436  printf3.o(i._printf_core)
    i._sendPDOevent                          0x0800dfbc   Section        0  canopen_pdo.o(i._sendPDOevent)
    i._setODentry                            0x0800e114   Section        0  canopen_objacces.o(i._setODentry)
    i._storeODSubIndex                       0x0800e234   Section        0  canopen_od.o(i._storeODSubIndex)
    i.buildPDO                               0x0800e236   Section        0  canopen_pdo.o(i.buildPDO)
    i.emergencyInit                          0x0800e310   Section        0  canopen_emcy.o(i.emergencyInit)
    i.emergencyStop                          0x0800e330   Section        0  canopen_emcy.o(i.emergencyStop)
    i.f_abs                                  0x0800e332   Section        0  function.o(i.f_abs)
    i.failedSDO                              0x0800e356   Section        0  canopen_sdo.o(i.failedSDO)
    i.fputc                                  0x0800e3f0   Section        0  main.o(i.fputc)
    i.getElapsedTime                         0x0800e40c   Section        0  canopen_timer.o(i.getElapsedTime)
    i.getNodeId                              0x0800e430   Section        0  canopen_nmt.o(i.getNodeId)
    i.getSDOfreeLine                         0x0800e434   Section        0  canopen_sdo.o(i.getSDOfreeLine)
    i.getSDOlineOnUse                        0x0800e464   Section        0  canopen_sdo.o(i.getSDOlineOnUse)
    i.getSDOlineRestBytes                    0x0800e49e   Section        0  canopen_sdo.o(i.getSDOlineRestBytes)
    i.heartbeatInit                          0x0800e4c0   Section        0  canopen_lifegrd.o(i.heartbeatInit)
    i.heartbeatStop                          0x0800e4fc   Section        0  canopen_lifegrd.o(i.heartbeatStop)
    i.initSDOline                            0x0800e510   Section        0  canopen_sdo.o(i.initSDOline)
    i.l_abs                                  0x0800e590   Section        0  function.o(i.l_abs)
    i.lifeGuardInit                          0x0800e5a2   Section        0  canopen_lifegrd.o(i.lifeGuardInit)
    i.lifeGuardStop                          0x0800e5a6   Section        0  canopen_lifegrd.o(i.lifeGuardStop)
    i.lineToSDO                              0x0800e5aa   Section        0  canopen_sdo.o(i.lineToSDO)
    i.main                                   0x0800e5e8   Section        0  main.o(i.main)
    i.objdictToSDOline                       0x0800ea6c   Section        0  canopen_sdo.o(i.objdictToSDOline)
    i.proceedPDO                             0x0800eab0   Section        0  canopen_pdo.o(i.proceedPDO)
    i.proceedSYNC                            0x0800edc4   Section        0  canopen_sync.o(i.proceedSYNC)
    i.resetSDO                               0x0800ee04   Section        0  canopen_sdo.o(i.resetSDO)
    i.resetSDOline                           0x0800ee1c   Section        0  canopen_sdo.o(i.resetSDOline)
    i.sendOnePDOevent                        0x0800ee54   Section        0  canopen_pdo.o(i.sendOnePDOevent)
    i.sendPDOevent                           0x0800ef68   Section        0  canopen_pdo.o(i.sendPDOevent)
    i.sendPdo                                0x0800ef74   Section        0  canopen_pdo.o(i.sendPdo)
    sendPdo                                  0x0800ef75   Thumb Code    48  canopen_pdo.o(i.sendPdo)
    i.setSDOlineRestBytes                    0x0800efa4   Section        0  canopen_sdo.o(i.setSDOlineRestBytes)
    i.setTimer                               0x0800efb4   Section        0  canopen_timer.o(i.setTimer)
    i.swap                                   0x0800efd8   Section        0  function.o(i.swap)
    .constdata                               0x0800effc   Section       64  stm32f4xx_it.o(.constdata)
    .constdata                               0x0800f03c   Section        8  stm32f4xx_hal_dma.o(.constdata)
    flagBitshiftOffset                       0x0800f03c   Data           8  stm32f4xx_hal_dma.o(.constdata)
    .constdata                               0x0800f044   Section       24  system_stm32f4xx.o(.constdata)
    .constdata                               0x0800f05c   Section     1442  canopen_od.o(.constdata)
    .constdata                               0x0800f600   Section     3000  agreement.o(.constdata)
    .constdata                               0x080101b8   Section       64  canopen_nmt.o(.constdata)
    .data                                    0x20000000   Section      120  main.o(.data)
    filterwGlobal_Flags                      0x20000074   Data           4  main.o(.data)
    .data                                    0x20000078   Section       68  stm32f4xx_it.o(.data)
    .data                                    0x200000bc   Section        9  stm32f4xx_hal.o(.data)
    .data                                    0x200000c8   Section        4  system_stm32f4xx.o(.data)
    .data                                    0x200000cc   Section      225  function.o(.data)
    motor_err_cnt5                           0x200001a6   Data           1  function.o(.data)
    motor_err_cnt6                           0x200001a7   Data           1  function.o(.data)
    err_cur_cnt                              0x200001a8   Data           1  function.o(.data)
    timer_cnt                                0x200001a9   Data           4  function.o(.data)
    .data                                    0x200001b0   Section        9  bsp_bdcmotor.o(.data)
    errcnt                                   0x200001b8   Data           1  bsp_bdcmotor.o(.data)
    .data                                    0x200001bc   Section    14176  canopen_od.o(.data)
    .data                                    0x2000391c   Section       20  canopen_timer.o(.data)
    .data                                    0x20003930   Section       24  flash.o(.data)
    tempi                                    0x20003944   Data           4  flash.o(.data)
    .data                                    0x20003948   Section       32  agreement.o(.data)
    .data                                    0x20003968   Section        4  stdout.o(.data)
    .bss                                     0x2000396c   Section    17496  main.o(.bss)
    .bss                                     0x20007dc4   Section       32  stm32f4xx_hal_flash.o(.bss)
    .bss                                     0x20007de4   Section      280  function.o(.bss)
    .bss                                     0x20007efc   Section      280  mc_pid_regulators.o(.bss)
    .bss                                     0x20008014   Section     1836  bsp_bdcmotor.o(.bss)
    .bss                                     0x20008740   Section       12  bsp_iwdg.o(.bss)
    .bss                                     0x2000874c   Section      940  canopen_od.o(.bss)
    .bss                                     0x20008af8   Section      256  canopen_timer.o(.bss)
    .bss                                     0x20008bf8   Section     1020  flash.o(.bss)
    EraseInitStruct                          0x20008fe0   Data          20  flash.o(.bss)
    .bss                                     0x20008ff4   Section     1464  agreement.o(.bss)
    STACK                                    0x200095b0   Section     4096  startup_stm32f407xx.o(STACK)

    Global Symbols

    Symbol Name                              Value     Ov Type        Size  Object(Section)

    BuildAttributes$$THM_ISAv4$E$P$D$K$B$S$7EM$VFPi3$EXTD16$VFPS$VFMA$PE$A:L22UL41UL21$X:L11$S22US41US21$IEEE1$IW$USESV6$~STKCKD$USESV7$~SHL$OSPACE$ROPI$EBA8$MICROLIB$REQ8$PRES8$EABIv2 0x00000000   Number         0  anon$$obj.o ABSOLUTE
    __ARM_use_no_argv                        0x00000000   Number         0  main.o ABSOLUTE
    _printf_a                                0x00000000   Number         0  stubs.o ABSOLUTE
    _printf_c                                0x00000000   Number         0  stubs.o ABSOLUTE
    _printf_charcount                        0x00000000   Number         0  stubs.o ABSOLUTE
    _printf_d                                0x00000000   Number         0  stubs.o ABSOLUTE
    _printf_e                                0x00000000   Number         0  stubs.o ABSOLUTE
    _printf_f                                0x00000000   Number         0  stubs.o ABSOLUTE
    _printf_flags                            0x00000000   Number         0  stubs.o ABSOLUTE
    _printf_fp_dec                           0x00000000   Number         0  stubs.o ABSOLUTE
    _printf_fp_hex                           0x00000000   Number         0  stubs.o ABSOLUTE
    _printf_g                                0x00000000   Number         0  stubs.o ABSOLUTE
    _printf_i                                0x00000000   Number         0  stubs.o ABSOLUTE
    _printf_int_dec                          0x00000000   Number         0  stubs.o ABSOLUTE
    _printf_l                                0x00000000   Number         0  stubs.o ABSOLUTE
    _printf_lc                               0x00000000   Number         0  stubs.o ABSOLUTE
    _printf_ll                               0x00000000   Number         0  stubs.o ABSOLUTE
    _printf_lld                              0x00000000   Number         0  stubs.o ABSOLUTE
    _printf_lli                              0x00000000   Number         0  stubs.o ABSOLUTE
    _printf_llo                              0x00000000   Number         0  stubs.o ABSOLUTE
    _printf_llu                              0x00000000   Number         0  stubs.o ABSOLUTE
    _printf_llx                              0x00000000   Number         0  stubs.o ABSOLUTE
    _printf_longlong_dec                     0x00000000   Number         0  stubs.o ABSOLUTE
    _printf_longlong_hex                     0x00000000   Number         0  stubs.o ABSOLUTE
    _printf_longlong_oct                     0x00000000   Number         0  stubs.o ABSOLUTE
    _printf_ls                               0x00000000   Number         0  stubs.o ABSOLUTE
    _printf_mbtowc                           0x00000000   Number         0  stubs.o ABSOLUTE
    _printf_n                                0x00000000   Number         0  stubs.o ABSOLUTE
    _printf_o                                0x00000000   Number         0  stubs.o ABSOLUTE
    _printf_p                                0x00000000   Number         0  stubs.o ABSOLUTE
    _printf_percent                          0x00000000   Number         0  stubs.o ABSOLUTE
    _printf_pre_padding                      0x00000000   Number         0  stubs.o ABSOLUTE
    _printf_return_value                     0x00000000   Number         0  stubs.o ABSOLUTE
    _printf_s                                0x00000000   Number         0  stubs.o ABSOLUTE
    _printf_sizespec                         0x00000000   Number         0  stubs.o ABSOLUTE
    _printf_str                              0x00000000   Number         0  stubs.o ABSOLUTE
    _printf_truncate_signed                  0x00000000   Number         0  stubs.o ABSOLUTE
    _printf_truncate_unsigned                0x00000000   Number         0  stubs.o ABSOLUTE
    _printf_u                                0x00000000   Number         0  stubs.o ABSOLUTE
    _printf_wc                               0x00000000   Number         0  stubs.o ABSOLUTE
    _printf_wctomb                           0x00000000   Number         0  stubs.o ABSOLUTE
    _printf_widthprec                        0x00000000   Number         0  stubs.o ABSOLUTE
    _printf_x                                0x00000000   Number         0  stubs.o ABSOLUTE
    __cpp_initialize__aeabi_                  - Undefined Weak Reference
    __cxa_finalize                            - Undefined Weak Reference
    _clock_init                               - Undefined Weak Reference
    _microlib_exit                            - Undefined Weak Reference
    __Vectors_Size                           0x00000188   Number         0  startup_stm32f407xx.o ABSOLUTE
    __Vectors                                0x08000000   Data           4  startup_stm32f407xx.o(RESET)
    __Vectors_End                            0x08000188   Data           0  startup_stm32f407xx.o(RESET)
    __main                                   0x08000189   Thumb Code     0  entry.o(.ARM.Collect$$$$00000000)
    _main_stk                                0x08000189   Thumb Code     0  entry2.o(.ARM.Collect$$$$00000001)
    _main_scatterload                        0x0800018d   Thumb Code     0  entry5.o(.ARM.Collect$$$$00000004)
    __main_after_scatterload                 0x08000191   Thumb Code     0  entry5.o(.ARM.Collect$$$$00000004)
    _main_clock                              0x08000191   Thumb Code     0  entry7b.o(.ARM.Collect$$$$00000008)
    _main_cpp_init                           0x08000191   Thumb Code     0  entry8b.o(.ARM.Collect$$$$0000000A)
    _main_init                               0x08000191   Thumb Code     0  entry9a.o(.ARM.Collect$$$$0000000B)
    __rt_final_cpp                           0x08000199   Thumb Code     0  entry10a.o(.ARM.Collect$$$$0000000D)
    __rt_final_exit                          0x08000199   Thumb Code     0  entry11a.o(.ARM.Collect$$$$0000000F)
    Reset_Handler                            0x0800019d   Thumb Code     8  startup_stm32f407xx.o(.text)
    CAN1_RX0_IRQHandler                      0x080001b7   Thumb Code     0  startup_stm32f407xx.o(.text)
    CAN1_RX1_IRQHandler                      0x080001b7   Thumb Code     0  startup_stm32f407xx.o(.text)
    CAN1_SCE_IRQHandler                      0x080001b7   Thumb Code     0  startup_stm32f407xx.o(.text)
    CAN1_TX_IRQHandler                       0x080001b7   Thumb Code     0  startup_stm32f407xx.o(.text)
    CAN2_RX1_IRQHandler                      0x080001b7   Thumb Code     0  startup_stm32f407xx.o(.text)
    CAN2_SCE_IRQHandler                      0x080001b7   Thumb Code     0  startup_stm32f407xx.o(.text)
    CAN2_TX_IRQHandler                       0x080001b7   Thumb Code     0  startup_stm32f407xx.o(.text)
    DCMI_IRQHandler                          0x080001b7   Thumb Code     0  startup_stm32f407xx.o(.text)
    DMA1_Stream0_IRQHandler                  0x080001b7   Thumb Code     0  startup_stm32f407xx.o(.text)
    DMA1_Stream1_IRQHandler                  0x080001b7   Thumb Code     0  startup_stm32f407xx.o(.text)
    DMA1_Stream2_IRQHandler                  0x080001b7   Thumb Code     0  startup_stm32f407xx.o(.text)
    DMA1_Stream3_IRQHandler                  0x080001b7   Thumb Code     0  startup_stm32f407xx.o(.text)
    DMA1_Stream4_IRQHandler                  0x080001b7   Thumb Code     0  startup_stm32f407xx.o(.text)
    DMA1_Stream5_IRQHandler                  0x080001b7   Thumb Code     0  startup_stm32f407xx.o(.text)
    DMA1_Stream6_IRQHandler                  0x080001b7   Thumb Code     0  startup_stm32f407xx.o(.text)
    DMA1_Stream7_IRQHandler                  0x080001b7   Thumb Code     0  startup_stm32f407xx.o(.text)
    DMA2_Stream1_IRQHandler                  0x080001b7   Thumb Code     0  startup_stm32f407xx.o(.text)
    DMA2_Stream2_IRQHandler                  0x080001b7   Thumb Code     0  startup_stm32f407xx.o(.text)
    DMA2_Stream3_IRQHandler                  0x080001b7   Thumb Code     0  startup_stm32f407xx.o(.text)
    DMA2_Stream4_IRQHandler                  0x080001b7   Thumb Code     0  startup_stm32f407xx.o(.text)
    DMA2_Stream5_IRQHandler                  0x080001b7   Thumb Code     0  startup_stm32f407xx.o(.text)
    DMA2_Stream6_IRQHandler                  0x080001b7   Thumb Code     0  startup_stm32f407xx.o(.text)
    DMA2_Stream7_IRQHandler                  0x080001b7   Thumb Code     0  startup_stm32f407xx.o(.text)
    ETH_IRQHandler                           0x080001b7   Thumb Code     0  startup_stm32f407xx.o(.text)
    ETH_WKUP_IRQHandler                      0x080001b7   Thumb Code     0  startup_stm32f407xx.o(.text)
    FLASH_IRQHandler                         0x080001b7   Thumb Code     0  startup_stm32f407xx.o(.text)
    FMC_IRQHandler                           0x080001b7   Thumb Code     0  startup_stm32f407xx.o(.text)
    FPU_IRQHandler                           0x080001b7   Thumb Code     0  startup_stm32f407xx.o(.text)
    HASH_RNG_IRQHandler                      0x080001b7   Thumb Code     0  startup_stm32f407xx.o(.text)
    I2C1_ER_IRQHandler                       0x080001b7   Thumb Code     0  startup_stm32f407xx.o(.text)
    I2C1_EV_IRQHandler                       0x080001b7   Thumb Code     0  startup_stm32f407xx.o(.text)
    I2C2_ER_IRQHandler                       0x080001b7   Thumb Code     0  startup_stm32f407xx.o(.text)
    I2C2_EV_IRQHandler                       0x080001b7   Thumb Code     0  startup_stm32f407xx.o(.text)
    I2C3_ER_IRQHandler                       0x080001b7   Thumb Code     0  startup_stm32f407xx.o(.text)
    I2C3_EV_IRQHandler                       0x080001b7   Thumb Code     0  startup_stm32f407xx.o(.text)
    OTG_FS_IRQHandler                        0x080001b7   Thumb Code     0  startup_stm32f407xx.o(.text)
    OTG_FS_WKUP_IRQHandler                   0x080001b7   Thumb Code     0  startup_stm32f407xx.o(.text)
    OTG_HS_EP1_IN_IRQHandler                 0x080001b7   Thumb Code     0  startup_stm32f407xx.o(.text)
    OTG_HS_EP1_OUT_IRQHandler                0x080001b7   Thumb Code     0  startup_stm32f407xx.o(.text)
    OTG_HS_IRQHandler                        0x080001b7   Thumb Code     0  startup_stm32f407xx.o(.text)
    OTG_HS_WKUP_IRQHandler                   0x080001b7   Thumb Code     0  startup_stm32f407xx.o(.text)
    PVD_IRQHandler                           0x080001b7   Thumb Code     0  startup_stm32f407xx.o(.text)
    RCC_IRQHandler                           0x080001b7   Thumb Code     0  startup_stm32f407xx.o(.text)
    RTC_Alarm_IRQHandler                     0x080001b7   Thumb Code     0  startup_stm32f407xx.o(.text)
    RTC_WKUP_IRQHandler                      0x080001b7   Thumb Code     0  startup_stm32f407xx.o(.text)
    SDIO_IRQHandler                          0x080001b7   Thumb Code     0  startup_stm32f407xx.o(.text)
    SPI1_IRQHandler                          0x080001b7   Thumb Code     0  startup_stm32f407xx.o(.text)
    SPI2_IRQHandler                          0x080001b7   Thumb Code     0  startup_stm32f407xx.o(.text)
    SPI3_IRQHandler                          0x080001b7   Thumb Code     0  startup_stm32f407xx.o(.text)
    TAMP_STAMP_IRQHandler                    0x080001b7   Thumb Code     0  startup_stm32f407xx.o(.text)
    TIM1_CC_IRQHandler                       0x080001b7   Thumb Code     0  startup_stm32f407xx.o(.text)
    TIM1_TRG_COM_TIM11_IRQHandler            0x080001b7   Thumb Code     0  startup_stm32f407xx.o(.text)
    TIM2_IRQHandler                          0x080001b7   Thumb Code     0  startup_stm32f407xx.o(.text)
    TIM3_IRQHandler                          0x080001b7   Thumb Code     0  startup_stm32f407xx.o(.text)
    TIM4_IRQHandler                          0x080001b7   Thumb Code     0  startup_stm32f407xx.o(.text)
    TIM8_CC_IRQHandler                       0x080001b7   Thumb Code     0  startup_stm32f407xx.o(.text)
    TIM8_TRG_COM_TIM14_IRQHandler            0x080001b7   Thumb Code     0  startup_stm32f407xx.o(.text)
    TIM8_UP_TIM13_IRQHandler                 0x080001b7   Thumb Code     0  startup_stm32f407xx.o(.text)
    UART4_IRQHandler                         0x080001b7   Thumb Code     0  startup_stm32f407xx.o(.text)
    UART5_IRQHandler                         0x080001b7   Thumb Code     0  startup_stm32f407xx.o(.text)
    USART1_IRQHandler                        0x080001b7   Thumb Code     0  startup_stm32f407xx.o(.text)
    USART2_IRQHandler                        0x080001b7   Thumb Code     0  startup_stm32f407xx.o(.text)
    USART6_IRQHandler                        0x080001b7   Thumb Code     0  startup_stm32f407xx.o(.text)
    WWDG_IRQHandler                          0x080001b7   Thumb Code     0  startup_stm32f407xx.o(.text)
    __aeabi_uldivmod                         0x080001c1   Thumb Code    98  uldiv.o(.text)
    __aeabi_memcpy                           0x08000223   Thumb Code    36  memcpya.o(.text)
    __aeabi_memcpy4                          0x08000223   Thumb Code     0  memcpya.o(.text)
    __aeabi_memcpy8                          0x08000223   Thumb Code     0  memcpya.o(.text)
    __aeabi_memset                           0x08000247   Thumb Code    14  memseta.o(.text)
    __aeabi_memset4                          0x08000247   Thumb Code     0  memseta.o(.text)
    __aeabi_memset8                          0x08000247   Thumb Code     0  memseta.o(.text)
    __aeabi_memclr                           0x08000255   Thumb Code     4  memseta.o(.text)
    __aeabi_memclr4                          0x08000255   Thumb Code     0  memseta.o(.text)
    __aeabi_memclr8                          0x08000255   Thumb Code     0  memseta.o(.text)
    _memset$wrapper                          0x08000259   Thumb Code    18  memseta.o(.text)
    memcmp                                   0x0800026b   Thumb Code    26  memcmp.o(.text)
    __aeabi_dmul                             0x08000285   Thumb Code   228  dmul.o(.text)
    __aeabi_i2d                              0x08000369   Thumb Code    34  dflti.o(.text)
    __aeabi_d2iz                             0x0800038b   Thumb Code    62  dfixi.o(.text)
    __aeabi_f2d                              0x080003c9   Thumb Code    38  f2d.o(.text)
    __aeabi_cdcmpeq                          0x080003f1   Thumb Code     0  cdcmple.o(.text)
    __aeabi_cdcmple                          0x080003f1   Thumb Code    48  cdcmple.o(.text)
    __aeabi_cdrcmple                         0x08000421   Thumb Code    48  cdrcmple.o(.text)
    __aeabi_uidiv                            0x08000451   Thumb Code     0  uidiv.o(.text)
    __aeabi_uidivmod                         0x08000451   Thumb Code    44  uidiv.o(.text)
    __aeabi_llsl                             0x0800047d   Thumb Code    30  llshl.o(.text)
    _ll_shift_l                              0x0800047d   Thumb Code     0  llshl.o(.text)
    __aeabi_llsr                             0x0800049b   Thumb Code    32  llushr.o(.text)
    _ll_ushift_r                             0x0800049b   Thumb Code     0  llushr.o(.text)
    __I$use$fp                               0x080004bb   Thumb Code     0  iusefp.o(.text)
    _double_round                            0x080004bb   Thumb Code    30  depilogue.o(.text)
    _double_epilogue                         0x080004d9   Thumb Code   156  depilogue.o(.text)
    __scatterload                            0x08000575   Thumb Code    28  init.o(.text)
    __scatterload_rt2                        0x08000575   Thumb Code     0  init.o(.text)
    __decompress                             0x08000599   Thumb Code     0  __dczerorl2.o(.text)
    __decompress1                            0x08000599   Thumb Code    86  __dczerorl2.o(.text)
    ADC_IRQHandler                           0x08000695   Thumb Code    10  stm32f4xx_it.o(i.ADC_IRQHandler)
    BLDC1_OverSpdChk                         0x08000805   Thumb Code   242  function.o(i.BLDC1_OverSpdChk)
    BLDC1_PhaseChange                        0x08000901   Thumb Code   352  bsp_bdcmotor.o(i.BLDC1_PhaseChange)
    BLDC2_OverSpdChk                         0x08000a69   Thumb Code   248  function.o(i.BLDC2_OverSpdChk)
    BLDC2_PhaseChange                        0x08000b69   Thumb Code   404  bsp_bdcmotor.o(i.BLDC2_PhaseChange)
    BLDC5_Phase_Check                        0x08000d05   Thumb Code   146  function.o(i.BLDC5_Phase_Check)
    BLDC6_Phase_Check                        0x08000da1   Thumb Code   146  function.o(i.BLDC6_Phase_Check)
    BLDC_Stuck_Chk                           0x08000e3d   Thumb Code   364  function.o(i.BLDC_Stuck_Chk)
    BubbleSort                               0x08000fbd   Thumb Code   110  function.o(i.BubbleSort)
    BusFault_Handler                         0x0800102b   Thumb Code     4  stm32f4xx_it.o(i.BusFault_Handler)
    CAN1_Send_Msg                            0x08001031   Thumb Code   124  main.o(i.CAN1_Send_Msg)
    CAN2_RX0_IRQHandler                      0x080010b5   Thumb Code    10  stm32f4xx_it.o(i.CAN2_RX0_IRQHandler)
    CANopen_Parameter_Init                   0x080012dd   Thumb Code   106  canopen_od.o(i.CANopen_Parameter_Init)
    ConsumerHeartbeatAlarm                   0x08001375   Thumb Code    38  canopen_lifegrd.o(i.ConsumerHeartbeatAlarm)
    CopyBits                                 0x0800139b   Thumb Code   152  canopen_pdo.o(i.CopyBits)
    CurrentLimit                             0x08001435   Thumb Code   788  function.o(i.CurrentLimit)
    DMA2_Stream0_IRQHandler                  0x0800174d   Thumb Code    10  stm32f4xx_it.o(i.DMA2_Stream0_IRQHandler)
    DebugMon_Handler                         0x08001867   Thumb Code     2  stm32f4xx_it.o(i.DebugMon_Handler)
    DelAlarm                                 0x08001869   Thumb Code    46  canopen_timer.o(i.DelAlarm)
    EXTI0_IRQHandler                         0x080018a1   Thumb Code    10  stm32f4xx_it.o(i.EXTI0_IRQHandler)
    EXTI15_10_IRQHandler                     0x080018ab   Thumb Code    44  stm32f4xx_it.o(i.EXTI15_10_IRQHandler)
    EXTI1_IRQHandler                         0x080018d7   Thumb Code    10  stm32f4xx_it.o(i.EXTI1_IRQHandler)
    EXTI2_IRQHandler                         0x080018e1   Thumb Code    10  stm32f4xx_it.o(i.EXTI2_IRQHandler)
    EXTI3_IRQHandler                         0x080018eb   Thumb Code    10  stm32f4xx_it.o(i.EXTI3_IRQHandler)
    EXTI4_IRQHandler                         0x080018f5   Thumb Code    10  stm32f4xx_it.o(i.EXTI4_IRQHandler)
    EXTI9_5_IRQHandler                       0x080018ff   Thumb Code    30  stm32f4xx_it.o(i.EXTI9_5_IRQHandler)
    Error_Handler                            0x0800191d   Thumb Code     6  main.o(i.Error_Handler)
    FLASH_Erase_Sector                       0x08001925   Thumb Code    86  stm32f4xx_hal_flash_ex.o(i.FLASH_Erase_Sector)
    FLASH_FlushCaches                        0x08001981   Thumb Code   114  stm32f4xx_hal_flash_ex.o(i.FLASH_FlushCaches)
    FLASH_WaitForLastOperation               0x08001b71   Thumb Code    90  stm32f4xx_hal_flash.o(i.FLASH_WaitForLastOperation)
    Flash_Read                               0x08001bd5   Thumb Code    52  flash.o(i.Flash_Read)
    Flash_WriteCheck                         0x08001c11   Thumb Code    26  agreement.o(i.Flash_WriteCheck)
    GetMotorSpeed                            0x08001c35   Thumb Code   108  bsp_bdcmotor.o(i.GetMotorSpeed)
    HALLSTUDY_PhaseChange0                   0x08001d91   Thumb Code   106  bsp_bdcmotor.o(i.HALLSTUDY_PhaseChange0)
    HALLSTUDY_PhaseChange1                   0x08001e01   Thumb Code   106  bsp_bdcmotor.o(i.HALLSTUDY_PhaseChange1)
    HALL_GetPhase2                           0x08001e71   Thumb Code    50  bsp_bdcmotor.o(i.HALL_GetPhase2)
    HAL_ADCEx_InjectedConvCpltCallback       0x08001ea9   Thumb Code     2  stm32f4xx_hal_adc_ex.o(i.HAL_ADCEx_InjectedConvCpltCallback)
    HAL_ADC_AnalogWDGConfig                  0x08001ead   Thumb Code   132  stm32f4xx_hal_adc.o(i.HAL_ADC_AnalogWDGConfig)
    HAL_ADC_ConfigChannel                    0x08001f35   Thumb Code   380  stm32f4xx_hal_adc.o(i.HAL_ADC_ConfigChannel)
    HAL_ADC_ConvCpltCallback                 0x080020c1   Thumb Code     2  main.o(i.HAL_ADC_ConvCpltCallback)
    HAL_ADC_ConvHalfCpltCallback             0x080020c3   Thumb Code     2  stm32f4xx_hal_adc.o(i.HAL_ADC_ConvHalfCpltCallback)
    HAL_ADC_ErrorCallback                    0x080020c5   Thumb Code     2  stm32f4xx_hal_adc.o(i.HAL_ADC_ErrorCallback)
    HAL_ADC_IRQHandler                       0x080020c7   Thumb Code   372  stm32f4xx_hal_adc.o(i.HAL_ADC_IRQHandler)
    HAL_ADC_Init                             0x0800223d   Thumb Code   128  stm32f4xx_hal_adc.o(i.HAL_ADC_Init)
    HAL_ADC_LevelOutOfWindowCallback         0x080022d9   Thumb Code    56  bsp_iwdg.o(i.HAL_ADC_LevelOutOfWindowCallback)
    HAL_ADC_MspInit                          0x08002315   Thumb Code   230  stm32f4xx_hal_msp.o(i.HAL_ADC_MspInit)
    HAL_ADC_Start_DMA                        0x08002415   Thumb Code   352  stm32f4xx_hal_adc.o(i.HAL_ADC_Start_DMA)
    HAL_CAN_ErrorCallback                    0x08002599   Thumb Code     2  stm32f4xx_hal_can.o(i.HAL_CAN_ErrorCallback)
    HAL_CAN_IRQHandler                       0x0800259d   Thumb Code   580  stm32f4xx_hal_can.o(i.HAL_CAN_IRQHandler)
    HAL_CAN_Receive_IT                       0x080027f1   Thumb Code   268  stm32f4xx_hal_can.o(i.HAL_CAN_Receive_IT)
    HAL_CAN_RxCpltCallback                   0x080028fd   Thumb Code    90  main.o(i.HAL_CAN_RxCpltCallback)
    HAL_CAN_Transmit                         0x08002965   Thumb Code   684  stm32f4xx_hal_can.o(i.HAL_CAN_Transmit)
    HAL_CAN_TxCpltCallback                   0x08002c1d   Thumb Code     2  stm32f4xx_hal_can.o(i.HAL_CAN_TxCpltCallback)
    HAL_DMA_Abort_IT                         0x08002c1f   Thumb Code    40  stm32f4xx_hal_dma.o(i.HAL_DMA_Abort_IT)
    HAL_DMA_IRQHandler                       0x08002c49   Thumb Code   570  stm32f4xx_hal_dma.o(i.HAL_DMA_IRQHandler)
    HAL_DMA_Init                             0x08002e89   Thumb Code   232  stm32f4xx_hal_dma.o(i.HAL_DMA_Init)
    HAL_DMA_Start_IT                         0x08002f75   Thumb Code   146  stm32f4xx_hal_dma.o(i.HAL_DMA_Start_IT)
    HAL_Delay                                0x08003009   Thumb Code    36  stm32f4xx_hal.o(i.HAL_Delay)
    HAL_FLASHEx_Erase                        0x08003031   Thumb Code   164  stm32f4xx_hal_flash_ex.o(i.HAL_FLASHEx_Erase)
    HAL_FLASH_Lock                           0x080030dd   Thumb Code    16  stm32f4xx_hal_flash.o(i.HAL_FLASH_Lock)
    HAL_FLASH_Program                        0x080030f1   Thumb Code   142  stm32f4xx_hal_flash.o(i.HAL_FLASH_Program)
    HAL_FLASH_Unlock                         0x08003189   Thumb Code    38  stm32f4xx_hal_flash.o(i.HAL_FLASH_Unlock)
    HAL_GPIO_EXTI_Callback                   0x080031bd   Thumb Code  2082  stm32f4xx_it.o(i.HAL_GPIO_EXTI_Callback)
    HAL_GPIO_EXTI_IRQHandler                 0x08003a11   Thumb Code    24  stm32f4xx_hal_gpio.o(i.HAL_GPIO_EXTI_IRQHandler)
    HAL_GPIO_Init                            0x08003a2d   Thumb Code   466  stm32f4xx_hal_gpio.o(i.HAL_GPIO_Init)
    HAL_GPIO_ReadPin                         0x08003c2d   Thumb Code    16  stm32f4xx_hal_gpio.o(i.HAL_GPIO_ReadPin)
    HAL_GPIO_TogglePin                       0x08003c3d   Thumb Code    18  stm32f4xx_hal_gpio.o(i.HAL_GPIO_TogglePin)
    HAL_GPIO_WritePin                        0x08003c4f   Thumb Code    12  stm32f4xx_hal_gpio.o(i.HAL_GPIO_WritePin)
    HAL_GetTick                              0x08003c5d   Thumb Code     6  stm32f4xx_hal.o(i.HAL_GetTick)
    HAL_IWDG_Init                            0x08003c69   Thumb Code    80  stm32f4xx_hal_iwdg.o(i.HAL_IWDG_Init)
    HAL_IWDG_Refresh                         0x08003cb9   Thumb Code    14  stm32f4xx_hal_iwdg.o(i.HAL_IWDG_Refresh)
    HAL_IncTick                              0x08003cc9   Thumb Code    16  stm32f4xx_hal.o(i.HAL_IncTick)
    HAL_Init                                 0x08003ce1   Thumb Code    54  stm32f4xx_hal.o(i.HAL_Init)
    HAL_InitTick                             0x08003d1d   Thumb Code    64  stm32f4xx_hal.o(i.HAL_InitTick)
    HAL_MspInit                              0x08003d69   Thumb Code    74  stm32f4xx_hal_msp.o(i.HAL_MspInit)
    HAL_NVIC_DisableIRQ                      0x08003db9   Thumb Code    62  stm32f4xx_hal_cortex.o(i.HAL_NVIC_DisableIRQ)
    HAL_NVIC_EnableIRQ                       0x08003dfd   Thumb Code    32  stm32f4xx_hal_cortex.o(i.HAL_NVIC_EnableIRQ)
    HAL_NVIC_SetPriority                     0x08003e1d   Thumb Code   124  stm32f4xx_hal_cortex.o(i.HAL_NVIC_SetPriority)
    HAL_NVIC_SetPriorityGrouping             0x08003e99   Thumb Code    32  stm32f4xx_hal_cortex.o(i.HAL_NVIC_SetPriorityGrouping)
    HAL_RCC_ClockConfig                      0x08003ec1   Thumb Code   368  stm32f4xx_hal_rcc.o(i.HAL_RCC_ClockConfig)
    HAL_RCC_GetHCLKFreq                      0x08004045   Thumb Code     6  stm32f4xx_hal_rcc.o(i.HAL_RCC_GetHCLKFreq)
    HAL_RCC_GetPCLK1Freq                     0x08004051   Thumb Code    22  stm32f4xx_hal_rcc.o(i.HAL_RCC_GetPCLK1Freq)
    HAL_RCC_GetPCLK2Freq                     0x08004071   Thumb Code    22  stm32f4xx_hal_rcc.o(i.HAL_RCC_GetPCLK2Freq)
    HAL_RCC_GetSysClockFreq                  0x08004091   Thumb Code   162  stm32f4xx_hal_rcc.o(i.HAL_RCC_GetSysClockFreq)
    HAL_RCC_OscConfig                        0x08004141   Thumb Code  1152  stm32f4xx_hal_rcc.o(i.HAL_RCC_OscConfig)
    HAL_SYSTICK_CLKSourceConfig              0x080045c9   Thumb Code    40  stm32f4xx_hal_cortex.o(i.HAL_SYSTICK_CLKSourceConfig)
    HAL_SYSTICK_Callback                     0x080045f1   Thumb Code  1130  main.o(i.HAL_SYSTICK_Callback)
    HAL_SYSTICK_Config                       0x08004a61   Thumb Code    52  stm32f4xx_hal_cortex.o(i.HAL_SYSTICK_Config)
    HAL_SYSTICK_IRQHandler                   0x08004a95   Thumb Code     8  stm32f4xx_hal_cortex.o(i.HAL_SYSTICK_IRQHandler)
    HAL_TIMEx_BreakCallback                  0x08004a9d   Thumb Code    90  main.o(i.HAL_TIMEx_BreakCallback)
    HAL_TIMEx_CommutCallback                 0x08004b15   Thumb Code     2  stm32f4xx_hal_tim_ex.o(i.HAL_TIMEx_CommutCallback)
    HAL_TIMEx_ConfigBreakDeadTime            0x08004b17   Thumb Code   116  stm32f4xx_hal_tim_ex.o(i.HAL_TIMEx_ConfigBreakDeadTime)
    HAL_TIMEx_MasterConfigSynchronization    0x08004b8d   Thumb Code   150  stm32f4xx_hal_tim_ex.o(i.HAL_TIMEx_MasterConfigSynchronization)
    HAL_TIMEx_PWMN_Start                     0x08004c41   Thumb Code    56  stm32f4xx_hal_tim_ex.o(i.HAL_TIMEx_PWMN_Start)
    HAL_TIM_Base_Init                        0x08004c79   Thumb Code    52  stm32f4xx_hal_tim.o(i.HAL_TIM_Base_Init)
    HAL_TIM_Base_MspInit                     0x08004cad   Thumb Code   746  stm32f4xx_hal_msp.o(i.HAL_TIM_Base_MspInit)
    HAL_TIM_Base_Start_IT                    0x08004fcd   Thumb Code    42  stm32f4xx_hal_tim.o(i.HAL_TIM_Base_Start_IT)
    HAL_TIM_ConfigClockSource                0x08004ff7   Thumb Code   264  stm32f4xx_hal_tim.o(i.HAL_TIM_ConfigClockSource)
    HAL_TIM_IC_CaptureCallback               0x08005101   Thumb Code    60  main.o(i.HAL_TIM_IC_CaptureCallback)
    HAL_TIM_IC_ConfigChannel                 0x08005149   Thumb Code   224  stm32f4xx_hal_tim.o(i.HAL_TIM_IC_ConfigChannel)
    HAL_TIM_IC_Init                          0x08005229   Thumb Code    52  stm32f4xx_hal_tim.o(i.HAL_TIM_IC_Init)
    HAL_TIM_IC_MspInit                       0x0800525d   Thumb Code   136  stm32f4xx_hal_msp.o(i.HAL_TIM_IC_MspInit)
    HAL_TIM_IC_Start_IT                      0x080052f1   Thumb Code   120  stm32f4xx_hal_tim.o(i.HAL_TIM_IC_Start_IT)
    HAL_TIM_IRQHandler                       0x08005369   Thumb Code   406  stm32f4xx_hal_tim.o(i.HAL_TIM_IRQHandler)
    HAL_TIM_MspPostInit                      0x08005501   Thumb Code   746  stm32f4xx_hal_msp.o(i.HAL_TIM_MspPostInit)
    HAL_TIM_OC_ConfigChannel                 0x0800581d   Thumb Code   116  stm32f4xx_hal_tim.o(i.HAL_TIM_OC_ConfigChannel)
    HAL_TIM_OC_DelayElapsedCallback          0x08005891   Thumb Code   842  main.o(i.HAL_TIM_OC_DelayElapsedCallback)
    HAL_TIM_OC_Init                          0x08005c09   Thumb Code    52  stm32f4xx_hal_tim.o(i.HAL_TIM_OC_Init)
    HAL_TIM_OC_MspInit                       0x08005c3d   Thumb Code     2  stm32f4xx_hal_tim.o(i.HAL_TIM_OC_MspInit)
    HAL_TIM_OC_Start_IT                      0x08005c41   Thumb Code   156  stm32f4xx_hal_tim.o(i.HAL_TIM_OC_Start_IT)
    HAL_TIM_PWM_ConfigChannel                0x08005ce5   Thumb Code   264  stm32f4xx_hal_tim.o(i.HAL_TIM_PWM_ConfigChannel)
    HAL_TIM_PWM_Init                         0x08005ded   Thumb Code    52  stm32f4xx_hal_tim.o(i.HAL_TIM_PWM_Init)
    HAL_TIM_PWM_MspInit                      0x08005e21   Thumb Code     2  stm32f4xx_hal_tim.o(i.HAL_TIM_PWM_MspInit)
    HAL_TIM_PWM_PulseFinishedCallback        0x08005e23   Thumb Code     2  stm32f4xx_hal_tim.o(i.HAL_TIM_PWM_PulseFinishedCallback)
    HAL_TIM_PWM_Start                        0x08005e25   Thumb Code    80  stm32f4xx_hal_tim.o(i.HAL_TIM_PWM_Start)
    HAL_TIM_PeriodElapsedCallback            0x08005e7d   Thumb Code  1558  main.o(i.HAL_TIM_PeriodElapsedCallback)
    HAL_TIM_ReadCapturedValue                0x080064cd   Thumb Code    50  stm32f4xx_hal_tim.o(i.HAL_TIM_ReadCapturedValue)
    HAL_TIM_TriggerCallback                  0x080064ff   Thumb Code     2  stm32f4xx_hal_tim.o(i.HAL_TIM_TriggerCallback)
    HAL_UART_ErrorCallback                   0x08006501   Thumb Code     2  stm32f4xx_hal_uart.o(i.HAL_UART_ErrorCallback)
    HAL_UART_IRQHandler                      0x08006505   Thumb Code   336  stm32f4xx_hal_uart.o(i.HAL_UART_IRQHandler)
    HAL_UART_Init                            0x08006659   Thumb Code   114  stm32f4xx_hal_uart.o(i.HAL_UART_Init)
    HAL_UART_MspInit                         0x080066cd   Thumb Code   140  stm32f4xx_hal_msp.o(i.HAL_UART_MspInit)
    HAL_UART_Receive_IT                      0x08006765   Thumb Code   112  stm32f4xx_hal_uart.o(i.HAL_UART_Receive_IT)
    HAL_UART_RxCpltCallback                  0x080067d5   Thumb Code     2  agreement.o(i.HAL_UART_RxCpltCallback)
    HAL_UART_Transmit                        0x080067d7   Thumb Code   216  stm32f4xx_hal_uart.o(i.HAL_UART_Transmit)
    HAL_UART_TxCpltCallback                  0x080068af   Thumb Code     2  stm32f4xx_hal_uart.o(i.HAL_UART_TxCpltCallback)
    HallStudyHandle0                         0x080068b1   Thumb Code   286  bsp_bdcmotor.o(i.HallStudyHandle0)
    HallStudyHandle1                         0x080069d9   Thumb Code   302  bsp_bdcmotor.o(i.HallStudyHandle1)
    HardFault_Handler                        0x08006b11   Thumb Code     4  stm32f4xx_it.o(i.HardFault_Handler)
    HardVersion_Init                         0x08006b15   Thumb Code    28  function.o(i.HardVersion_Init)
    Hardware_flowCheck                       0x08006b31   Thumb Code   230  function.o(i.Hardware_flowCheck)
    HeartBeat_Message_Handle                 0x08006c21   Thumb Code   196  canopen_lifegrd.o(i.HeartBeat_Message_Handle)
    Init_Drive_Para                          0x08006ced   Thumb Code  1032  function.o(i.Init_Drive_Para)
    InternalFlash                            0x080070f5   Thumb Code   238  flash.o(i.InternalFlash)
    Labview_uart                             0x08007211   Thumb Code   634  main.o(i.Labview_uart)
    MC_ClearFault                            0x080074b9   Thumb Code    22  function.o(i.MC_ClearFault)
    MC_SetFault                              0x080074d9   Thumb Code    48  function.o(i.MC_SetFault)
    MC_SetFault1                             0x08007511   Thumb Code    48  function.o(i.MC_SetFault1)
    MX_IWDG_Init                             0x08007911   Thumb Code    24  bsp_iwdg.o(i.MX_IWDG_Init)
    MX_USART3_UART_Init                      0x08008231   Thumb Code    46  agreement.o(i.MX_USART3_UART_Init)
    MemManage_Handler                        0x08008269   Thumb Code     4  stm32f4xx_it.o(i.MemManage_Handler)
    MessageType_Check                        0x0800826d   Thumb Code    94  canopen_nmt.o(i.MessageType_Check)
    Motor5_Default_Phase_Cheek               0x080082cd   Thumb Code   390  function.o(i.Motor5_Default_Phase_Cheek)
    Motor6_Default_Phase_Cheek               0x08008475   Thumb Code   390  function.o(i.Motor6_Default_Phase_Cheek)
    Motor7_Err_Chk                           0x0800861d   Thumb Code    72  function.o(i.Motor7_Err_Chk)
    MotorStuckCheck                          0x0800866d   Thumb Code    22  function.o(i.MotorStuckCheck)
    Motor_Fault_Clear                        0x08008685   Thumb Code   372  function.o(i.Motor_Fault_Clear)
    NMI_Handler                              0x08008819   Thumb Code     4  stm32f4xx_it.o(i.NMI_Handler)
    Net_Manager_Handle                       0x0800881d   Thumb Code   176  canopen_nmt.o(i.Net_Manager_Handle)
    ODCallback_t_Index1010_Subindex1         0x080088cd   Thumb Code    64  canopen_od.o(i.ODCallback_t_Index1010_Subindex1)
    ODCallback_t_Index1016_Subindex          0x08008919   Thumb Code   124  canopen_lifegrd.o(i.ODCallback_t_Index1016_Subindex)
    ODCallback_t_Index2098_Subindex0         0x08008999   Thumb Code    52  canopen_od.o(i.ODCallback_t_Index2098_Subindex0)
    ODCallback_t_Index2099_Subindex0         0x080089cd   Thumb Code    78  canopen_od.o(i.ODCallback_t_Index2099_Subindex0)
    ODCallback_t_RPDO_Communicate            0x08008a1d   Thumb Code    78  canopen_pdo.o(i.ODCallback_t_RPDO_Communicate)
    ODCallback_t_RPDO_Map                    0x08008a71   Thumb Code   260  canopen_pdo.o(i.ODCallback_t_RPDO_Map)
    ODCallback_t_RPDO_MapSubindex0           0x08008b81   Thumb Code   170  canopen_pdo.o(i.ODCallback_t_RPDO_MapSubindex0)
    ODCallback_t_TPDO_Communicate            0x08008c35   Thumb Code   170  canopen_pdo.o(i.ODCallback_t_TPDO_Communicate)
    ODCallback_t_TPDO_Map                    0x08008ce5   Thumb Code   186  canopen_pdo.o(i.ODCallback_t_TPDO_Map)
    ODCallback_t_TPDO_MapSubindex0           0x08008da9   Thumb Code   170  canopen_pdo.o(i.ODCallback_t_TPDO_MapSubindex0)
    OD_Index_san                             0x08008e5d   Thumb Code    18  canopen_objacces.o(i.OD_Index_san)
    ObjDict_Get_Id                           0x08008e71   Thumb Code  1688  canopen_od.o(i.ObjDict_Get_Id)
    ObjDict_scanIndexOD                      0x08009511   Thumb Code  1784  canopen_od.o(i.ObjDict_scanIndexOD)
    ObjDict_valueRangeTest                   0x08009c39   Thumb Code    24  canopen_od.o(i.ObjDict_valueRangeTest)
    OnHeartbeatProducerUpdate                0x08009c55   Thumb Code    20  canopen_lifegrd.o(i.OnHeartbeatProducerUpdate)
    OnNumberOfErrorsUpdate                   0x08009c69   Thumb Code    38  canopen_emcy.o(i.OnNumberOfErrorsUpdate)
    Over_VoltageCheck                        0x08009c91   Thumb Code   270  function.o(i.Over_VoltageCheck)
    PDOEventTimerAlarm                       0x08009da9   Thumb Code    44  canopen_pdo.o(i.PDOEventTimerAlarm)
    PDOInhibitTimerAlarm                     0x08009dd5   Thumb Code    46  canopen_pdo.o(i.PDOInhibitTimerAlarm)
    PDOInit                                  0x08009e05   Thumb Code    72  canopen_pdo.o(i.PDOInit)
    PDOStop                                  0x08009e51   Thumb Code   114  canopen_pdo.o(i.PDOStop)
    PID_Init                                 0x08009ec5   Thumb Code   158  mc_pid_regulators.o(i.PID_Init)
    PID_PWM_Init                             0x08009f6d   Thumb Code    68  mc_pid_regulators.o(i.PID_PWM_Init)
    PID_Regulator                            0x08009fb5   Thumb Code   268  mc_pid_regulators.o(i.PID_Regulator)
    PWM_Change                               0x0800a0c9   Thumb Code    60  main.o(i.PWM_Change)
    PendSV_Handler                           0x0800a10d   Thumb Code     2  stm32f4xx_it.o(i.PendSV_Handler)
    ProducerHeartbeatAlarm                   0x0800a111   Thumb Code    62  canopen_lifegrd.o(i.ProducerHeartbeatAlarm)
    Program_Version_Init                     0x0800a155   Thumb Code    28  function.o(i.Program_Version_Init)
    Push_Motor_Calibrate                     0x0800a171   Thumb Code  1188  function.o(i.Push_Motor_Calibrate)
    Push_Motor_Cheek                         0x0800a629   Thumb Code   778  function.o(i.Push_Motor_Cheek)
    Push_Motor_CurSelfAdapt                  0x0800a955   Thumb Code   390  function.o(i.Push_Motor_CurSelfAdapt)
    Push_Motor_Location_Control              0x0800aaed   Thumb Code   314  function.o(i.Push_Motor_Location_Control)
    Push_OverRunChk                          0x0800ac2d   Thumb Code   434  function.o(i.Push_OverRunChk)
    RPDO_Direct_SetODentry                   0x0800ade9   Thumb Code   126  canopen_pdo.o(i.RPDO_Direct_SetODentry)
    RPDO_Direct_Trans_Init                   0x0800ae67   Thumb Code   210  canopen_pdo.o(i.RPDO_Direct_Trans_Init)
    Ramp_PPWM                                0x0800af39   Thumb Code   392  bsp_bdcmotor.o(i.Ramp_PPWM)
    Ramp_Speed                               0x0800b0c9   Thumb Code   368  bsp_bdcmotor.o(i.Ramp_Speed)
    RegisterSetOnDentry_Callback             0x0800b23d   Thumb Code    36  canopen_objacces.o(i.RegisterSetOnDentry_Callback)
    SDOTimeoutAlarm                          0x0800b261   Thumb Code   124  canopen_sdo.o(i.SDOTimeoutAlarm)
    SDO_Email_Handler                        0x0800b2e1   Thumb Code  1770  canopen_sdo.o(i.SDO_Email_Handler)
    SDO_Err_Record                           0x0800b9d5   Thumb Code    56  canopen_sdo.o(i.SDO_Err_Record)
    SDOlineToObjdict                         0x0800ba0d   Thumb Code    66  canopen_sdo.o(i.SDOlineToObjdict)
    SDOtoLine                                0x0800ba4f   Thumb Code    48  canopen_sdo.o(i.SDOtoLine)
    SVC_Handler                              0x0800ba7f   Thumb Code     2  stm32f4xx_it.o(i.SVC_Handler)
    SendBootUp                               0x0800ba81   Thumb Code    60  canopen_nmt.o(i.SendBootUp)
    SendSDO                                  0x0800babd   Thumb Code    96  canopen_sdo.o(i.SendSDO)
    SetAlarm                                 0x0800bb1d   Thumb Code   166  canopen_timer.o(i.SetAlarm)
    SetMotorSpeed                            0x0800bbd1   Thumb Code  2650  bsp_bdcmotor.o(i.SetMotorSpeed)
    SetMotorStop                             0x0800c645   Thumb Code   458  bsp_bdcmotor.o(i.SetMotorStop)
    SetNodeId                                0x0800c839   Thumb Code   272  canopen_nmt.o(i.SetNodeId)
    SetState                                 0x0800c94d   Thumb Code   150  canopen_nmt.o(i.SetState)
    StopSync                                 0x0800c9e9   Thumb Code    34  canopen_sync.o(i.StopSync)
    Suction_motor_errhandle                  0x0800ca11   Thumb Code   348  bsp_bdcmotor.o(i.Suction_motor_errhandle)
    SwitchCommunication_State                0x0800cb75   Thumb Code   222  canopen_nmt.o(i.SwitchCommunication_State)
    SysTick_Handler                          0x0800cc53   Thumb Code    12  stm32f4xx_it.o(i.SysTick_Handler)
    Sys_Time                                 0x0800cc61   Thumb Code    86  main.o(i.Sys_Time)
    SystemClock_Config                       0x0800ccbd   Thumb Code   206  main.o(i.SystemClock_Config)
    SystemInit                               0x0800cd95   Thumb Code    24  system_stm32f4xx.o(i.SystemInit)
    TIM1_BRK_TIM9_IRQHandler                 0x0800cdb1   Thumb Code    16  stm32f4xx_it.o(i.TIM1_BRK_TIM9_IRQHandler)
    TIM1_UP_TIM10_IRQHandler                 0x0800cdc9   Thumb Code    16  stm32f4xx_it.o(i.TIM1_UP_TIM10_IRQHandler)
    TIM5_IRQHandler                          0x0800cde1   Thumb Code    10  stm32f4xx_it.o(i.TIM5_IRQHandler)
    TIM6_DAC_IRQHandler                      0x0800cdf1   Thumb Code    44  canopen_timer.o(i.TIM6_DAC_IRQHandler)
    TIM6_Init                                0x0800ce21   Thumb Code   104  canopen_timer.o(i.TIM6_Init)
    TIM7_IRQHandler                          0x0800ce95   Thumb Code    10  stm32f4xx_it.o(i.TIM7_IRQHandler)
    TIM8_BRK_TIM12_IRQHandler                0x0800cea5   Thumb Code    10  stm32f4xx_it.o(i.TIM8_BRK_TIM12_IRQHandler)
    TIM_Base_SetConfig                       0x0800ceb5   Thumb Code   170  stm32f4xx_hal_tim.o(i.TIM_Base_SetConfig)
    TIM_CCxChannelCmd                        0x0800cf8d   Thumb Code    34  stm32f4xx_hal_tim.o(i.TIM_CCxChannelCmd)
    TIM_ETR_SetConfig                        0x0800cfd1   Thumb Code    22  stm32f4xx_hal_tim.o(i.TIM_ETR_SetConfig)
    TIM_OC2_SetConfig                        0x0800d069   Thumb Code   114  stm32f4xx_hal_tim.o(i.TIM_OC2_SetConfig)
    TIM_TI1_SetConfig                        0x0800d1d9   Thumb Code   114  stm32f4xx_hal_tim.o(i.TIM_TI1_SetConfig)
    TimeDispatch                             0x0800d341   Thumb Code   178  canopen_timer.o(i.TimeDispatch)
    TimerForCan                              0x0800d401   Thumb Code    54  canopen_timer.o(i.TimerForCan)
    USART3_IRQHandler                        0x0800da01   Thumb Code    20  stm32f4xx_it.o(i.USART3_IRQHandler)
    UsageFault_Handler                       0x0800da1d   Thumb Code     4  stm32f4xx_it.o(i.UsageFault_Handler)
    Voltage_offset_cali                      0x0800da21   Thumb Code   158  function.o(i.Voltage_offset_cali)
    WriteData_toFlash                        0x0800dad9   Thumb Code    60  flash.o(i.WriteData_toFlash)
    _RPOD_SyncEvent                          0x0800db15   Thumb Code   316  canopen_pdo.o(i._RPOD_SyncEvent)
    _RxPDO_EventTimers_Handler               0x0800dc55   Thumb Code     2  canopen_pdo.o(i._RxPDO_EventTimers_Handler)
    __0printf$3                              0x0800dc59   Thumb Code    22  printf3.o(i.__0printf$3)
    __1printf$3                              0x0800dc59   Thumb Code     0  printf3.o(i.__0printf$3)
    __2printf                                0x0800dc59   Thumb Code     0  printf3.o(i.__0printf$3)
    __scatterload_copy                       0x0800dcb1   Thumb Code    14  handlers.o(i.__scatterload_copy)
    __scatterload_null                       0x0800dcbf   Thumb Code     2  handlers.o(i.__scatterload_null)
    __scatterload_zeroinit                   0x0800dcc1   Thumb Code    14  handlers.o(i.__scatterload_zeroinit)
    _getODentry                              0x0800dcd1   Thumb Code   218  canopen_objacces.o(i._getODentry)
    _heartbeatError                          0x0800ddbd   Thumb Code    52  canopen_lifegrd.o(i._heartbeatError)
    _initialisation                          0x0800ddf9   Thumb Code     2  canopen_nmt.o(i._initialisation)
    _operational                             0x0800ddfb   Thumb Code     2  canopen_nmt.o(i._operational)
    _post_SlaveStateChange                   0x0800ddfd   Thumb Code     2  canopen_lifegrd.o(i._post_SlaveStateChange)
    _post_TPDO                               0x0800ddff   Thumb Code     2  canopen_sync.o(i._post_TPDO)
    _post_sync                               0x0800de01   Thumb Code     2  canopen_sync.o(i._post_sync)
    _preOperational                          0x0800de03   Thumb Code     2  canopen_nmt.o(i._preOperational)
    _sendPDOevent                            0x0800dfbd   Thumb Code   344  canopen_pdo.o(i._sendPDOevent)
    _setODentry                              0x0800e115   Thumb Code   270  canopen_objacces.o(i._setODentry)
    _storeODSubIndex                         0x0800e235   Thumb Code     2  canopen_od.o(i._storeODSubIndex)
    buildPDO                                 0x0800e237   Thumb Code   216  canopen_pdo.o(i.buildPDO)
    emergencyInit                            0x0800e311   Thumb Code    28  canopen_emcy.o(i.emergencyInit)
    emergencyStop                            0x0800e331   Thumb Code     2  canopen_emcy.o(i.emergencyStop)
    f_abs                                    0x0800e333   Thumb Code    36  function.o(i.f_abs)
    failedSDO                                0x0800e357   Thumb Code   152  canopen_sdo.o(i.failedSDO)
    fputc                                    0x0800e3f1   Thumb Code    22  main.o(i.fputc)
    getElapsedTime                           0x0800e40d   Thumb Code    28  canopen_timer.o(i.getElapsedTime)
    getNodeId                                0x0800e431   Thumb Code     4  canopen_nmt.o(i.getNodeId)
    getSDOfreeLine                           0x0800e435   Thumb Code    48  canopen_sdo.o(i.getSDOfreeLine)
    getSDOlineOnUse                          0x0800e465   Thumb Code    58  canopen_sdo.o(i.getSDOlineOnUse)
    getSDOlineRestBytes                      0x0800e49f   Thumb Code    34  canopen_sdo.o(i.getSDOlineRestBytes)
    heartbeatInit                            0x0800e4c1   Thumb Code    46  canopen_lifegrd.o(i.heartbeatInit)
    heartbeatStop                            0x0800e4fd   Thumb Code    16  canopen_lifegrd.o(i.heartbeatStop)
    initSDOline                              0x0800e511   Thumb Code   124  canopen_sdo.o(i.initSDOline)
    l_abs                                    0x0800e591   Thumb Code    18  function.o(i.l_abs)
    lifeGuardInit                            0x0800e5a3   Thumb Code     4  canopen_lifegrd.o(i.lifeGuardInit)
    lifeGuardStop                            0x0800e5a7   Thumb Code     4  canopen_lifegrd.o(i.lifeGuardStop)
    lineToSDO                                0x0800e5ab   Thumb Code    62  canopen_sdo.o(i.lineToSDO)
    main                                     0x0800e5e9   Thumb Code  1014  main.o(i.main)
    objdictToSDOline                         0x0800ea6d   Thumb Code    66  canopen_sdo.o(i.objdictToSDOline)
    proceedPDO                               0x0800eab1   Thumb Code   772  canopen_pdo.o(i.proceedPDO)
    proceedSYNC                              0x0800edc5   Thumb Code    54  canopen_sync.o(i.proceedSYNC)
    resetSDO                                 0x0800ee05   Thumb Code    24  canopen_sdo.o(i.resetSDO)
    resetSDOline                             0x0800ee1d   Thumb Code    56  canopen_sdo.o(i.resetSDOline)
    sendOnePDOevent                          0x0800ee55   Thumb Code   266  canopen_pdo.o(i.sendOnePDOevent)
    sendPDOevent                             0x0800ef69   Thumb Code     8  canopen_pdo.o(i.sendPDOevent)
    setSDOlineRestBytes                      0x0800efa5   Thumb Code    16  canopen_sdo.o(i.setSDOlineRestBytes)
    setTimer                                 0x0800efb5   Thumb Code    22  canopen_timer.o(i.setTimer)
    swap                                     0x0800efd9   Thumb Code    36  function.o(i.swap)
    Dir_tab                                  0x0800effc   Data          64  stm32f4xx_it.o(.constdata)
    AHBPrescTable                            0x0800f044   Data          16  system_stm32f4xx.o(.constdata)
    APBPrescTable                            0x0800f054   Data           8  system_stm32f4xx.o(.constdata)
    OBJ_FirstIndex                           0x0800f05c   Data          12  canopen_od.o(.constdata)
    OBJ_LastIndex                            0x0800f068   Data          12  canopen_od.o(.constdata)
    pObjDict                                 0x0800f074   Data        1416  canopen_od.o(.constdata)
    pObjDictSize                             0x0800f5fc   Data           2  canopen_od.o(.constdata)
    PARAMETER                                0x0800f600   Data        3000  agreement.o(.constdata)
    Region$$Table$$Base                      0x080101f8   Number         0  anon$$obj.o(Region$$Table)
    Region$$Table$$Limit                     0x08010218   Number         0  anon$$obj.o(Region$$Table)
    Rx_flag                                  0x20000000   Data           1  main.o(.data)
    DMA_Transfer_Complete_Count              0x20000004   Data           4  main.o(.data)
    SysCLC                                   0x20000008   Data           5  main.o(.data)
    MotorState                               0x2000000d   Data           1  main.o(.data)
    CH1TEMP                                  0x20000010   Data           4  main.o(.data)
    CH2TEMP                                  0x20000014   Data           4  main.o(.data)
    Push_motor_calibrationFLAG               0x20000018   Data           1  main.o(.data)
    First_PowerOn                            0x20000019   Data           1  main.o(.data)
    First_Enter_STUDY_MOTOR5                 0x2000001a   Data           1  main.o(.data)
    First_Enter_STUDY_MOTOR6                 0x2000001b   Data           1  main.o(.data)
    Uart_TxBuffer_CNT                        0x2000001c   Data           2  main.o(.data)
    Uart_TxBuffer_CNT1                       0x2000001e   Data           2  main.o(.data)
    motorset                                 0x20000020   Data           1  main.o(.data)
    OverFlow_Cnt                             0x20000021   Data           5  main.o(.data)
    avglecount                               0x20000028   Data           4  main.o(.data)
    avglecountB                              0x2000002c   Data           4  main.o(.data)
    enableallmotor                           0x20000030   Data           1  main.o(.data)
    errormotor5                              0x20000031   Data           1  main.o(.data)
    errormotor6                              0x20000032   Data           1  main.o(.data)
    Programcount                             0x20000034   Data           4  main.o(.data)
    Cnt_100us                                0x20000038   Data           4  main.o(.data)
    DeepFilterValPer_A                       0x2000003c   Data           8  main.o(.data)
    MotorControl5_Current_DeepFilterVAL      0x20000044   Data           2  main.o(.data)
    MotorControl6_Current_DeepFilterVAL      0x20000046   Data           2  main.o(.data)
    int32test                                0x20000048   Data           4  main.o(.data)
    avglecont                                0x2000004c   Data           4  main.o(.data)
    hallstatetemp                            0x20000050   Data           1  main.o(.data)
    TxBufferSize                             0x20000052   Data           2  main.o(.data)
    uart_counter                             0x20000054   Data           1  main.o(.data)
    CCRValue                                 0x20000058   Data           4  main.o(.data)
    acounta                                  0x2000005c   Data           4  main.o(.data)
    testcount                                0x20000060   Data           4  main.o(.data)
    CCRValueB                                0x20000064   Data           4  main.o(.data)
    SetCCRValue                              0x20000068   Data           4  main.o(.data)
    SetCCRValueB                             0x2000006c   Data           4  main.o(.data)
    pwmchangeflag                            0x20000070   Data           4  main.o(.data)
    PrevHallState1                           0x20000078   Data           1  stm32f4xx_it.o(.data)
    PrevHallState2                           0x20000079   Data           1  stm32f4xx_it.o(.data)
    HallState1                               0x2000007a   Data           1  stm32f4xx_it.o(.data)
    HallState2                               0x2000007b   Data           1  stm32f4xx_it.o(.data)
    HallState1_CW                            0x2000007c   Data           1  stm32f4xx_it.o(.data)
    HallState1_CCW                           0x2000007d   Data           1  stm32f4xx_it.o(.data)
    HallState2_CCW                           0x2000007e   Data           1  stm32f4xx_it.o(.data)
    BLDC1_Speed_RPM                          0x20000080   Data           2  stm32f4xx_it.o(.data)
    HallState1_Temp                          0x20000082   Data           1  stm32f4xx_it.o(.data)
    HallState2_Temp                          0x20000083   Data           1  stm32f4xx_it.o(.data)
    BLDC2_Speed_RPM                          0x20000084   Data           2  stm32f4xx_it.o(.data)
    HALL_CaptureValueDelta                   0x20000088   Data           4  stm32f4xx_it.o(.data)
    HALL_CaptureValueDelta2                  0x2000008c   Data           4  stm32f4xx_it.o(.data)
    HALL_OVF_Counter                         0x20000090   Data           4  stm32f4xx_it.o(.data)
    PreHALL_OVF_Counter                      0x20000094   Data           4  stm32f4xx_it.o(.data)
    HALL_PHASE_Counter                       0x20000098   Data           4  stm32f4xx_it.o(.data)
    Hall_Dir                                 0x2000009c   Data           2  stm32f4xx_it.o(.data)
    test0                                    0x200000a0   Data           4  stm32f4xx_it.o(.data)
    BLDC_Time                                0x200000a4   Data           4  stm32f4xx_it.o(.data)
    Utime                                    0x200000a8   Data           4  stm32f4xx_it.o(.data)
    cntime                                   0x200000ac   Data           4  stm32f4xx_it.o(.data)
    i233                                     0x200000b0   Data           4  stm32f4xx_it.o(.data)
    Pre_Bldctime                             0x200000b4   Data           2  stm32f4xx_it.o(.data)
    UPeriod                                  0x200000b6   Data           2  stm32f4xx_it.o(.data)
    moto5phasecount                          0x200000b8   Data           4  stm32f4xx_it.o(.data)
    uwTick                                   0x200000bc   Data           4  stm32f4xx_hal.o(.data)
    uwTickPrio                               0x200000c0   Data           4  stm32f4xx_hal.o(.data)
    uwTickFreq                               0x200000c4   Data           1  stm32f4xx_hal.o(.data)
    SystemCoreClock                          0x200000c8   Data           4  system_stm32f4xx.o(.data)
    wGlobal_Flags                            0x200000cc   Data           4  function.o(.data)
    prewGlobal_Flags                         0x200000d0   Data           4  function.o(.data)
    wGlobal_Flags1                           0x200000d4   Data           4  function.o(.data)
    FaultOccurred                            0x200000d8   Data           4  function.o(.data)
    FaultOccurred1                           0x200000dc   Data           4  function.o(.data)
    DisplayCounter                           0x200000e0   Data           4  function.o(.data)
    Need_To_Stuck_Function                   0x200000e4   Data          14  function.o(.data)
    Stuck_Speed                              0x200000f4   Data           4  function.o(.data)
    Stuck_Time                               0x200000f8   Data           4  function.o(.data)
    Percentage_Of_Current                    0x200000fc   Data          56  function.o(.data)
    NeedToMissingHallPush                    0x20000134   Data          14  function.o(.data)
    PushMaxPulse                             0x20000142   Data          28  function.o(.data)
    testM5_100us_ac_ab_bc_cur                0x20000160   Data           4  function.o(.data)
    testM6_100us_ac_ab_bc_cur                0x20000164   Data           4  function.o(.data)
    Voltage_offset_calibration               0x20000168   Data           8  function.o(.data)
    ADC_ConvertedValueindex                  0x20000170   Data           8  function.o(.data)
    offset_cnt                               0x20000178   Data           1  function.o(.data)
    cur_ratio                                0x2000017c   Data          28  function.o(.data)
    limitpwm                                 0x20000198   Data           2  function.o(.data)
    M5phase_check_cnt                        0x2000019a   Data           2  function.o(.data)
    M6phase_check_cnt                        0x2000019c   Data           2  function.o(.data)
    M5stuck_check_cnt                        0x2000019e   Data           2  function.o(.data)
    M6stuck_check_cnt                        0x200001a0   Data           2  function.o(.data)
    speed_err_cnt1                           0x200001a2   Data           2  function.o(.data)
    speed_err_cnt2                           0x200001a4   Data           2  function.o(.data)
    Motor_Prescaler                          0x200001b0   Data           2  bsp_bdcmotor.o(.data)
    test6                                    0x200001b4   Data           4  bsp_bdcmotor.o(.data)
    BULID_FILE                               0x200001bc   Data           1  canopen_od.o(.data)
    BULID_LINE                               0x200001bd   Data           1  canopen_od.o(.data)
    EmcyTransData                            0x200001be   Data           8  canopen_od.o(.data)
    pReserved                                0x200001c8   Data           4  canopen_od.o(.data)
    pTest_1                                  0x200001cc   Data           1  canopen_od.o(.data)
    pTest_2                                  0x200001ce   Data           2  canopen_od.o(.data)
    pTest_4                                  0x200001d0   Data           4  canopen_od.o(.data)
    pSest_1                                  0x200001d4   Data           1  canopen_od.o(.data)
    pSest_2                                  0x200001d6   Data           2  canopen_od.o(.data)
    pSest_4                                  0x200001d8   Data           4  canopen_od.o(.data)
    pStr_8                                   0x200001dc   Data           6  canopen_od.o(.data)
    Motor_calibra_date                       0x200001e4   Data           8  canopen_od.o(.data)
    RS232_OD_SIGN                            0x200001ec   Data           4  canopen_od.o(.data)
    RPDO_SYNC_SIGN                           0x200001f0   Data           4  canopen_od.o(.data)
    obj1000_deviceType                       0x200001f4   Data           4  canopen_od.o(.data)
    ObjDict_Index1000                        0x200001f8   Data          20  canopen_od.o(.data)
    obj1001_errReg                           0x2000020c   Data           1  canopen_od.o(.data)
    ObjDict_Index1001                        0x20000210   Data          20  canopen_od.o(.data)
    obj1002_Manufacturer_status              0x20000224   Data           4  canopen_od.o(.data)
    ObjDict_Index1002                        0x20000228   Data          20  canopen_od.o(.data)
    obj1003_preErrRegion_subindex            0x2000023c   Data           1  canopen_od.o(.data)
    obj1003_preErrRegion                     0x20000240   Data           4  canopen_od.o(.data)
    ObjDict_Index1003                        0x20000244   Data          40  canopen_od.o(.data)
    obj1005_CobId_sync                       0x2000026c   Data           4  canopen_od.o(.data)
    ObjDict_Index1005                        0x20000270   Data          20  canopen_od.o(.data)
    obj1006_Cmnct_period_sync                0x20000284   Data           4  canopen_od.o(.data)
    ObjDict_Index1006                        0x20000288   Data          20  canopen_od.o(.data)
    obj1007_syncWindow_len                   0x2000029c   Data           4  canopen_od.o(.data)
    ObjDict_Index1007                        0x200002a0   Data          20  canopen_od.o(.data)
    obj1008_Manufacturer_device_Name         0x200002b4   Data           8  canopen_od.o(.data)
    ObjDict_Index1008                        0x200002bc   Data          20  canopen_od.o(.data)
    obj1009_Manufacturer_Hardware_Vesion     0x200002d0   Data           4  canopen_od.o(.data)
    ObjDict_Index1009                        0x200002d4   Data          20  canopen_od.o(.data)
    obj100A_Manufacturer_Firmware_Vesion     0x200002e8   Data           4  canopen_od.o(.data)
    ObjDict_Index100A                        0x200002ec   Data          20  canopen_od.o(.data)
    obj100C_Guard_period                     0x20000300   Data           2  canopen_od.o(.data)
    ObjDict_Index100C                        0x20000304   Data          20  canopen_od.o(.data)
    obj100D_existPeriod_fact                 0x20000318   Data           1  canopen_od.o(.data)
    ObjDict_Index100D                        0x2000031c   Data          20  canopen_od.o(.data)
    obj1010_subindex                         0x20000330   Data           4  canopen_od.o(.data)
    obj1010_saveflash                        0x20000334   Data           4  canopen_od.o(.data)
    Index1010_callbacks                      0x20000338   Data           8  canopen_od.o(.data)
    ObjDict_Index1010                        0x20000340   Data          40  canopen_od.o(.data)
    obj1011_subindex                         0x20000368   Data           4  canopen_od.o(.data)
    obj1011_recover                          0x2000036c   Data           4  canopen_od.o(.data)
    ObjDict_Index1011                        0x20000370   Data          40  canopen_od.o(.data)
    obj1012_CobId_timestamp                  0x20000398   Data           4  canopen_od.o(.data)
    ObjDict_Index1012                        0x2000039c   Data          20  canopen_od.o(.data)
    obj1013_timestamp                        0x200003b0   Data           4  canopen_od.o(.data)
    ObjDict_Index1013                        0x200003b4   Data          20  canopen_od.o(.data)
    obj1014_CobId_Emcy                       0x200003c8   Data           4  canopen_od.o(.data)
    ObjDict_Index1014                        0x200003cc   Data          20  canopen_od.o(.data)
    obj1015_InhabitTime_Emcy                 0x200003e0   Data           4  canopen_od.o(.data)
    ObjDict_Index1015                        0x200003e4   Data          20  canopen_od.o(.data)
    obj1016_ClientHeart_timeout_subindex     0x200003f8   Data           1  canopen_od.o(.data)
    obj1016_ClientHeart_timeout              0x200003fc   Data          20  canopen_od.o(.data)
    Index1016_callbacks                      0x20000410   Data          24  canopen_od.o(.data)
    ObjDict_Index1016                        0x20000428   Data         120  canopen_od.o(.data)
    obj1017_ServerHeart_timeout_subindex     0x200004a0   Data           4  canopen_od.o(.data)
    obj1017_SeverHeart_timeout               0x200004a4   Data           4  canopen_od.o(.data)
    Index1017_callbacks                      0x200004a8   Data           4  canopen_od.o(.data)
    ObjDict_Index1017                        0x200004ac   Data          20  canopen_od.o(.data)
    ObjDict_Index1018                        0x200004c0   Data         100  canopen_od.o(.data)
    obj1019_syncTimer_overflow               0x20000524   Data           1  canopen_od.o(.data)
    ObjDict_Index1019                        0x20000528   Data          20  canopen_od.o(.data)
    obj1028_Client_emcy_subindex             0x2000053c   Data           4  canopen_od.o(.data)
    obj1028_Client_emcy                      0x20000540   Data           4  canopen_od.o(.data)
    ObjDict_Index1028                        0x20000544   Data          40  canopen_od.o(.data)
    obj1200_SdoServer_SubIndex               0x2000056c   Data           1  canopen_od.o(.data)
    obj1200_SdoServer_RSDO_COB_ID            0x20000570   Data           4  canopen_od.o(.data)
    obj1200_SdoServer_TSDO_COB_ID            0x20000574   Data           4  canopen_od.o(.data)
    obj1200_SdoServer_NodeId                 0x20000578   Data           1  canopen_od.o(.data)
    ObjDict_Index1200                        0x2000057c   Data          80  canopen_od.o(.data)
    obj1280_SdoClient_SubIndex               0x200005cc   Data           1  canopen_od.o(.data)
    obj1280_SdoClient_RSDO_COB_ID            0x200005d0   Data           4  canopen_od.o(.data)
    obj1280_SdoClient_TSDO_COB_ID            0x200005d4   Data           4  canopen_od.o(.data)
    obj1280_SdoClient_NodeId                 0x200005d8   Data           1  canopen_od.o(.data)
    ObjDict_Index1280                        0x200005dc   Data          80  canopen_od.o(.data)
    RPDO_Cmct_callbacks                      0x2000062c   Data          12  canopen_od.o(.data)
    ObjDict_Index1400                        0x20000638   Data          60  canopen_od.o(.data)
    ObjDict_Index1401                        0x20000674   Data          60  canopen_od.o(.data)
    ObjDict_Index1402                        0x200006b0   Data          60  canopen_od.o(.data)
    ObjDict_Index1403                        0x200006ec   Data          60  canopen_od.o(.data)
    IndexRPDO_Map_callbacks                  0x20000728   Data          36  canopen_od.o(.data)
    ObjDict_Index1600                        0x2000074c   Data         180  canopen_od.o(.data)
    ObjDict_Index1601                        0x20000800   Data         180  canopen_od.o(.data)
    ObjDict_Index1602                        0x200008b4   Data         180  canopen_od.o(.data)
    ObjDict_Index1603                        0x20000968   Data         180  canopen_od.o(.data)
    TPDO_Cmct_callbacks                      0x20000a1c   Data          28  canopen_od.o(.data)
    ObjDict_Index1800                        0x20000a38   Data         140  canopen_od.o(.data)
    ObjDict_Index1801                        0x20000ac4   Data         140  canopen_od.o(.data)
    ObjDict_Index1802                        0x20000b50   Data         140  canopen_od.o(.data)
    ObjDict_Index1803                        0x20000bdc   Data         140  canopen_od.o(.data)
    IndexTPDO_Map_callbacks                  0x20000c68   Data          36  canopen_od.o(.data)
    ObjDict_Index1A00                        0x20000c8c   Data         180  canopen_od.o(.data)
    ObjDict_Index1A01                        0x20000d40   Data         180  canopen_od.o(.data)
    ObjDict_Index1A02                        0x20000df4   Data         180  canopen_od.o(.data)
    ObjDict_Index1A03                        0x20000ea8   Data         180  canopen_od.o(.data)
    obj2000                                  0x20000f5c   Data           1  canopen_od.o(.data)
    obj2000_sub1                             0x20000f5d   Data           1  canopen_od.o(.data)
    obj2000_sub2                             0x20000f5e   Data           1  canopen_od.o(.data)
    obj2000_sub3                             0x20000f5f   Data           1  canopen_od.o(.data)
    obj2000_sub4                             0x20000f60   Data           1  canopen_od.o(.data)
    obj2000_sub5                             0x20000f61   Data           1  canopen_od.o(.data)
    obj2000_sub6                             0x20000f62   Data           1  canopen_od.o(.data)
    obj2000_sub7                             0x20000f63   Data           1  canopen_od.o(.data)
    obj2000_sub8                             0x20000f64   Data           4  canopen_od.o(.data)
    ObjDict_Index2000                        0x20000f68   Data         180  canopen_od.o(.data)
    ParInNum16                               0x2000101c   Data           1  canopen_od.o(.data)
    ParInNum14                               0x2000101d   Data           1  canopen_od.o(.data)
    ParInNum12                               0x2000101e   Data           1  canopen_od.o(.data)
    ParInNum10                               0x2000101f   Data           1  canopen_od.o(.data)
    ParInNum8                                0x20001020   Data           1  canopen_od.o(.data)
    ParInNum6                                0x20001021   Data           1  canopen_od.o(.data)
    ParInNum5                                0x20001022   Data           1  canopen_od.o(.data)
    ParInNum4                                0x20001023   Data           1  canopen_od.o(.data)
    ParInNum2                                0x20001024   Data           1  canopen_od.o(.data)
    ObjDict_Index2001                        0x20001028   Data         300  canopen_od.o(.data)
    ObjDict_Index2002                        0x20001154   Data         220  canopen_od.o(.data)
    ObjDict_Index2003                        0x20001230   Data         220  canopen_od.o(.data)
    ObjDict_Index2004                        0x2000130c   Data         100  canopen_od.o(.data)
    ObjDict_Index2005                        0x20001370   Data         220  canopen_od.o(.data)
    ObjDict_Index2006                        0x2000144c   Data         220  canopen_od.o(.data)
    ObjDict_Index2007                        0x20001528   Data         220  canopen_od.o(.data)
    ObjDict_Index2008                        0x20001604   Data         260  canopen_od.o(.data)
    ObjDict_Index2009                        0x20001708   Data         220  canopen_od.o(.data)
    ObjDict_Index200A                        0x200017e4   Data         220  canopen_od.o(.data)
    ObjDict_Index200B                        0x200018c0   Data         220  canopen_od.o(.data)
    obj2098_NodeID_Default                   0x2000199c   Data           1  canopen_od.o(.data)
    Index2098_callbacks                      0x200019a0   Data           4  canopen_od.o(.data)
    ObjDict_Index2098                        0x200019a4   Data          20  canopen_od.o(.data)
    obj2099_CanBandrate_Default              0x200019b8   Data           4  canopen_od.o(.data)
    Index2099_callbacks                      0x200019bc   Data           4  canopen_od.o(.data)
    ObjDict_Index2099                        0x200019c0   Data          20  canopen_od.o(.data)
    ObjDict_Index3000                        0x200019d4   Data         100  canopen_od.o(.data)
    ObjDict_Index3001                        0x20001a38   Data         100  canopen_od.o(.data)
    ObjDict_Index3002                        0x20001a9c   Data         100  canopen_od.o(.data)
    ObjDict_Index3003                        0x20001b00   Data         220  canopen_od.o(.data)
    ObjDict_Index3004                        0x20001bdc   Data         100  canopen_od.o(.data)
    ObjDict_Index3005                        0x20001c40   Data         340  canopen_od.o(.data)
    ObjDict_Index3006                        0x20001d94   Data         100  canopen_od.o(.data)
    ObjDict_Index3007                        0x20001df8   Data         100  canopen_od.o(.data)
    ObjDict_Index3008                        0x20001e5c   Data         100  canopen_od.o(.data)
    ObjDict_Index3009                        0x20001ec0   Data         100  canopen_od.o(.data)
    ObjDict_Index300A                        0x20001f24   Data         100  canopen_od.o(.data)
    ObjDict_Index300B                        0x20001f88   Data         140  canopen_od.o(.data)
    ObjDict_Index300C                        0x20002014   Data          60  canopen_od.o(.data)
    ObjDict_Index300D                        0x20002050   Data          80  canopen_od.o(.data)
    ObjDict_Index300E                        0x200020a0   Data          20  canopen_od.o(.data)
    ObjDict_Index300F                        0x200020b4   Data          20  canopen_od.o(.data)
    ObjDict_Index3010                        0x200020c8   Data          40  canopen_od.o(.data)
    ObjDict_Index3011                        0x200020f0   Data         220  canopen_od.o(.data)
    ObjDict_Index3012                        0x200021cc   Data         140  canopen_od.o(.data)
    ObjDict_Index3013                        0x20002258   Data         220  canopen_od.o(.data)
    ObjDict_Index3014                        0x20002334   Data         220  canopen_od.o(.data)
    ObjDict_Index3015                        0x20002410   Data         340  canopen_od.o(.data)
    ObjDict_Index3016                        0x20002564   Data         180  canopen_od.o(.data)
    ObjDict_Index3017                        0x20002618   Data         100  canopen_od.o(.data)
    obj6007_AbortCnect_optcode               0x2000267c   Data           2  canopen_od.o(.data)
    ObjDict_Index6007                        0x20002680   Data          20  canopen_od.o(.data)
    obj603F_errcode                          0x20002694   Data           2  canopen_od.o(.data)
    ObjDict_Index603F                        0x20002698   Data          20  canopen_od.o(.data)
    obj6402_motorType                        0x200026ac   Data           2  canopen_od.o(.data)
    ObjDict_Index6402                        0x200026b0   Data          20  canopen_od.o(.data)
    obj6403_Motor_Nameplate                  0x200026c4   Data           1  canopen_od.o(.data)
    ObjDict_Index6403                        0x200026c8   Data          20  canopen_od.o(.data)
    obj6404_Motor_manufacturer_name          0x200026dc   Data           1  canopen_od.o(.data)
    ObjDict_Index6404                        0x200026e0   Data          20  canopen_od.o(.data)
    obj6502_Supported_driver_mode            0x200026f4   Data           4  canopen_od.o(.data)
    ObjDict_Index6502                        0x200026f8   Data          20  canopen_od.o(.data)
    obj60FD_Digital_inputs                   0x2000270c   Data           4  canopen_od.o(.data)
    ObjDict_Index60FD                        0x20002710   Data          20  canopen_od.o(.data)
    obj60FE_Digital_outputs_subindex         0x20002724   Data           4  canopen_od.o(.data)
    obj60FE_Digital_outputs_dout             0x20002728   Data           4  canopen_od.o(.data)
    obj60FE_Digital_outputs_mask             0x2000272c   Data           4  canopen_od.o(.data)
    ObjDict_Index60FE                        0x20002730   Data          60  canopen_od.o(.data)
    obj6040_Control_word                     0x2000276c   Data           2  canopen_od.o(.data)
    ObjDict_Index6040                        0x20002770   Data          20  canopen_od.o(.data)
    obj6041_Status_word                      0x20002784   Data           2  canopen_od.o(.data)
    ObjDict_Index6041                        0x20002788   Data          20  canopen_od.o(.data)
    obj605B_ShutDown_optcode                 0x2000279c   Data           2  canopen_od.o(.data)
    ObjDict_Index605B                        0x200027a0   Data          20  canopen_od.o(.data)
    obj605C_Disable_optcode                  0x200027b4   Data           2  canopen_od.o(.data)
    ObjDict_Index605C                        0x200027b8   Data          20  canopen_od.o(.data)
    obj605A_QuickStop_optcode                0x200027cc   Data           2  canopen_od.o(.data)
    ObjDict_Index605A                        0x200027d0   Data          20  canopen_od.o(.data)
    obj605D_Halt_optcode                     0x200027e4   Data           2  canopen_od.o(.data)
    ObjDict_Index605D                        0x200027e8   Data          20  canopen_od.o(.data)
    obj605E_FaultReact_optcode               0x200027fc   Data           2  canopen_od.o(.data)
    ObjDict_Index605E                        0x20002800   Data          20  canopen_od.o(.data)
    obj6060_Control_mode                     0x20002814   Data           1  canopen_od.o(.data)
    ObjDict_Index6060                        0x20002818   Data          20  canopen_od.o(.data)
    obj6061_Control_mode_status              0x2000282c   Data           1  canopen_od.o(.data)
    ObjDict_Index6061                        0x20002830   Data          20  canopen_od.o(.data)
    obj6089_PosNotation_index                0x20002844   Data           1  canopen_od.o(.data)
    ObjDict_Index6089                        0x20002848   Data          20  canopen_od.o(.data)
    obj608A_PosDimension_index               0x2000285c   Data           1  canopen_od.o(.data)
    ObjDict_Index608A                        0x20002860   Data          20  canopen_od.o(.data)
    obj608B_VelNotation_index                0x20002874   Data           1  canopen_od.o(.data)
    ObjDict_Index608B                        0x20002878   Data          20  canopen_od.o(.data)
    obj608C_VelDimension_index               0x2000288c   Data           1  canopen_od.o(.data)
    ObjDict_Index608C                        0x20002890   Data          20  canopen_od.o(.data)
    obj608D_AccelNotation_index              0x200028a4   Data           1  canopen_od.o(.data)
    ObjDict_Index608D                        0x200028a8   Data          20  canopen_od.o(.data)
    obj608E_AccelDimension_index             0x200028bc   Data           1  canopen_od.o(.data)
    ObjDict_Index608E                        0x200028c0   Data          20  canopen_od.o(.data)
    obj6093_PosFactor_subindex               0x200028d4   Data           4  canopen_od.o(.data)
    obj6093_PosFactor_numerator              0x200028d8   Data           4  canopen_od.o(.data)
    obj6093_PosFactor_FeedConst              0x200028dc   Data           4  canopen_od.o(.data)
    ObjDict_Index6093                        0x200028e0   Data          60  canopen_od.o(.data)
    obj6094_VelFactor_subindex               0x2000291c   Data           4  canopen_od.o(.data)
    obj6094_VelFactor_numerator              0x20002920   Data           4  canopen_od.o(.data)
    obj6094_VelFactor_FeedConst              0x20002924   Data           4  canopen_od.o(.data)
    ObjDict_Index6094                        0x20002928   Data          60  canopen_od.o(.data)
    obj6097_AccelFactor_subindex             0x20002964   Data           4  canopen_od.o(.data)
    obj6097_AccelFactor_numerator            0x20002968   Data           4  canopen_od.o(.data)
    obj6097_AccelFactor_FeedConst            0x2000296c   Data           4  canopen_od.o(.data)
    ObjDict_Index6097                        0x20002970   Data          60  canopen_od.o(.data)
    obj607E_Pos_rotation                     0x200029ac   Data           1  canopen_od.o(.data)
    ObjDict_Index607E                        0x200029b0   Data          20  canopen_od.o(.data)
    obj607A_Targt_Position                   0x200029c4   Data           4  canopen_od.o(.data)
    ObjDict_Index607A                        0x200029c8   Data          20  canopen_od.o(.data)
    obj607D_Croft_PosLimit_subindex          0x200029dc   Data           4  canopen_od.o(.data)
    obj607D_Croft_PosLimit_min               0x200029e0   Data           4  canopen_od.o(.data)
    obj607D_Croft_PosLimit_max               0x200029e4   Data           4  canopen_od.o(.data)
    ObjDict_Index607D                        0x200029e8   Data          60  canopen_od.o(.data)
    obj6081_Profile_Vel                      0x20002a24   Data           4  canopen_od.o(.data)
    ObjDict_Index6081                        0x20002a28   Data          20  canopen_od.o(.data)
    obj6083_Profile_Accel                    0x20002a3c   Data           4  canopen_od.o(.data)
    ObjDict_Index6083                        0x20002a40   Data          20  canopen_od.o(.data)
    obj6084_Profile_Decel                    0x20002a54   Data           4  canopen_od.o(.data)
    ObjDict_Index6084                        0x20002a58   Data          20  canopen_od.o(.data)
    obj6085_Profile_QuickDecel               0x20002a6c   Data           4  canopen_od.o(.data)
    ObjDict_Index6085                        0x20002a70   Data          20  canopen_od.o(.data)
    obj6086_Motion_profile_mode              0x20002a84   Data           2  canopen_od.o(.data)
    ObjDict_Index6086                        0x20002a88   Data          20  canopen_od.o(.data)
    obj607C_Homing_offset                    0x20002a9c   Data           4  canopen_od.o(.data)
    ObjDict_Index607C                        0x20002aa0   Data          20  canopen_od.o(.data)
    obj6098_Homing_mode                      0x20002ab4   Data           4  canopen_od.o(.data)
    ObjDict_Index6098                        0x20002ab8   Data          20  canopen_od.o(.data)
    ObjDict_Index60C5                        0x20002acc   Data          20  canopen_od.o(.data)
    ObjDict_Index60C6                        0x20002ae0   Data          20  canopen_od.o(.data)
    obj60F6_torque_para_subindex             0x20002af4   Data           4  canopen_od.o(.data)
    ObjDict_Index60F6                        0x20002af8   Data          60  canopen_od.o(.data)
    ObjDict_Index60F7                        0x20002b34   Data          40  canopen_od.o(.data)
    obj60F9_speed_para_subindex              0x20002b5c   Data           4  canopen_od.o(.data)
    ObjDict_Index60F9                        0x20002b60   Data          80  canopen_od.o(.data)
    obj60FB_pos_para_subindex                0x20002bb0   Data           4  canopen_od.o(.data)
    ObjDict_Index60FB                        0x20002bb4   Data          60  canopen_od.o(.data)
    obj6099_Homing_speed_subindex            0x20002bf0   Data           4  canopen_od.o(.data)
    obj6099_Homing_speed_switch              0x20002bf4   Data           4  canopen_od.o(.data)
    obj6099_Homing_speed_zero                0x20002bf8   Data           4  canopen_od.o(.data)
    ObjDict_Index6099                        0x20002bfc   Data          60  canopen_od.o(.data)
    obj609A_Homing_Accel                     0x20002c38   Data           4  canopen_od.o(.data)
    ObjDict_Index609A                        0x20002c3c   Data          20  canopen_od.o(.data)
    obj6062_Position_demand_value            0x20002c50   Data           4  canopen_od.o(.data)
    ObjDict_Index6062                        0x20002c54   Data          20  canopen_od.o(.data)
    obj6063_Pos_act                          0x20002c68   Data           4  canopen_od.o(.data)
    ObjDict_Index6063                        0x20002c6c   Data          20  canopen_od.o(.data)
    obj6064_Position_act                     0x20002c80   Data           4  canopen_od.o(.data)
    ObjDict_Index6064                        0x20002c84   Data          20  canopen_od.o(.data)
    obj6065_Follow_Err_window                0x20002c98   Data           4  canopen_od.o(.data)
    ObjDict_Index6065                        0x20002c9c   Data          20  canopen_od.o(.data)
    obj6066_Follow_Err_window_timeout        0x20002cb0   Data           2  canopen_od.o(.data)
    ObjDict_Index6066                        0x20002cb4   Data          20  canopen_od.o(.data)
    obj6067_Position_window                  0x20002cc8   Data           4  canopen_od.o(.data)
    ObjDict_Index6067                        0x20002ccc   Data          20  canopen_od.o(.data)
    obj6068_Position_window_time             0x20002ce0   Data           2  canopen_od.o(.data)
    ObjDict_Index6068                        0x20002ce4   Data          20  canopen_od.o(.data)
    obj60F4_Follow_Err_act                   0x20002cf8   Data           2  canopen_od.o(.data)
    ObjDict_Index60F4                        0x20002cfc   Data          20  canopen_od.o(.data)
    obj60FC_PosDemand_value                  0x20002d10   Data           4  canopen_od.o(.data)
    ObjDict_Index60FC                        0x20002d14   Data          20  canopen_od.o(.data)
    obj6069_Vel_sensor_act                   0x20002d28   Data           4  canopen_od.o(.data)
    ObjDict_Index6069                        0x20002d2c   Data          20  canopen_od.o(.data)
    obj606B_Vel_demand_value                 0x20002d40   Data           4  canopen_od.o(.data)
    ObjDict_Index606B                        0x20002d44   Data          20  canopen_od.o(.data)
    obj606C_Vel_actual                       0x20002d58   Data           4  canopen_od.o(.data)
    ObjDict_Index606C                        0x20002d5c   Data          20  canopen_od.o(.data)
    obj606D_Vel_window                       0x20002d70   Data           2  canopen_od.o(.data)
    ObjDict_Index606D                        0x20002d74   Data          20  canopen_od.o(.data)
    obj606E_Vel_window_time                  0x20002d88   Data           2  canopen_od.o(.data)
    ObjDict_Index606E                        0x20002d8c   Data          20  canopen_od.o(.data)
    obj606F_Vel_threshold                    0x20002da0   Data           2  canopen_od.o(.data)
    ObjDict_Index606F                        0x20002da4   Data          20  canopen_od.o(.data)
    obj6070_Vel_threshold_time               0x20002db8   Data           2  canopen_od.o(.data)
    ObjDict_Index6070                        0x20002dbc   Data          20  canopen_od.o(.data)
    obj60FF_Vel_Targt                        0x20002dd0   Data           4  canopen_od.o(.data)
    ObjDict_Index60FF                        0x20002dd4   Data          20  canopen_od.o(.data)
    obj60F8_Vel_Max_slippage                 0x20002de8   Data           4  canopen_od.o(.data)
    ObjDict_Index60F8                        0x20002dec   Data          20  canopen_od.o(.data)
    obj6071_Torque_Targt                     0x20002e00   Data           2  canopen_od.o(.data)
    ObjDict_Index6071                        0x20002e04   Data          20  canopen_od.o(.data)
    obj6072_Max_Torque                       0x20002e18   Data           2  canopen_od.o(.data)
    ObjDict_Index6072                        0x20002e1c   Data          20  canopen_od.o(.data)
    obj6073_Max_Current                      0x20002e30   Data           2  canopen_od.o(.data)
    ObjDict_Index6073                        0x20002e34   Data          20  canopen_od.o(.data)
    obj6074_Torque_demand_value              0x20002e48   Data           2  canopen_od.o(.data)
    ObjDict_Index6074                        0x20002e4c   Data          20  canopen_od.o(.data)
    obj6075_rated_Current                    0x20002e60   Data           4  canopen_od.o(.data)
    ObjDict_Index6075                        0x20002e64   Data          20  canopen_od.o(.data)
    obj6076_rated_torque                     0x20002e78   Data           4  canopen_od.o(.data)
    ObjDict_Index6076                        0x20002e7c   Data          20  canopen_od.o(.data)
    obj6077_Torque_act                       0x20002e90   Data           2  canopen_od.o(.data)
    ObjDict_Index6077                        0x20002e94   Data          20  canopen_od.o(.data)
    obj6078_Current_act                      0x20002ea8   Data           2  canopen_od.o(.data)
    ObjDict_Index6078                        0x20002eac   Data          20  canopen_od.o(.data)
    obj6079_Voltage_bus                      0x20002ec0   Data           4  canopen_od.o(.data)
    ObjDict_Index6079                        0x20002ec4   Data          20  canopen_od.o(.data)
    obj6087_Torque_slope                     0x20002ed8   Data           4  canopen_od.o(.data)
    ObjDict_Index6087                        0x20002edc   Data          20  canopen_od.o(.data)
    obj6088_Torque_profile_type              0x20002ef0   Data           2  canopen_od.o(.data)
    ObjDict_Index6088                        0x20002ef4   Data          20  canopen_od.o(.data)
    obj6042_Vlvel_targt                      0x20002f08   Data           2  canopen_od.o(.data)
    ObjDict_Index6042                        0x20002f0c   Data          20  canopen_od.o(.data)
    obj6043_Vlvel_demand_value               0x20002f20   Data           2  canopen_od.o(.data)
    ObjDict_Index6043                        0x20002f24   Data          20  canopen_od.o(.data)
    obj6053_Vl_percentage_demand             0x20002f38   Data           2  canopen_od.o(.data)
    ObjDict_Index6053                        0x20002f3c   Data          20  canopen_od.o(.data)
    obj6054_Vl_percentage_act                0x20002f50   Data           2  canopen_od.o(.data)
    ObjDict_Index6054                        0x20002f54   Data          20  canopen_od.o(.data)
    obj6055_Vl_manipulated_percentage        0x20002f68   Data           2  canopen_od.o(.data)
    ObjDict_Index6055                        0x20002f6c   Data          20  canopen_od.o(.data)
    obj604E_Vlvel_reference                  0x20002f80   Data           4  canopen_od.o(.data)
    ObjDict_Index604E                        0x20002f84   Data          20  canopen_od.o(.data)
    obj604C_Vl_DimFactor_subindex            0x20002f98   Data           4  canopen_od.o(.data)
    obj604C_Vl_DimFactor_numerator           0x20002f9c   Data           4  canopen_od.o(.data)
    obj604C_Vl_DimFactor_denominator         0x20002fa0   Data           4  canopen_od.o(.data)
    ObjDict_Index604C                        0x20002fa4   Data          60  canopen_od.o(.data)
    obj604B_Vl_SetPointFactor_subindex       0x20002fe0   Data           2  canopen_od.o(.data)
    obj604B_Vl_SetPointFactor_numerato       0x20002fe2   Data           2  canopen_od.o(.data)
    obj604B_Vl_SetPointFactor_denominator    0x20002fe4   Data           2  canopen_od.o(.data)
    ObjDict_Index604B                        0x20002fe8   Data          60  canopen_od.o(.data)
    obj604D_Pole_Number                      0x20003024   Data           1  canopen_od.o(.data)
    ObjDict_Index604D                        0x20003028   Data          20  canopen_od.o(.data)
    obj6046_Vlvel_MinMax_amount_subindex     0x2000303c   Data           4  canopen_od.o(.data)
    obj6046_Vlvel_Min_amount                 0x20003040   Data           4  canopen_od.o(.data)
    obj6046_Vlvel_Max_amount                 0x20003044   Data           4  canopen_od.o(.data)
    ObjDict_Index6046                        0x20003048   Data          60  canopen_od.o(.data)
    obj6047_Vlvel_MinMax_subindex            0x20003084   Data           4  canopen_od.o(.data)
    obj6047_Vlvel_Min_Pos                    0x20003088   Data           4  canopen_od.o(.data)
    obj6047_Vlvel_Max_Pos                    0x2000308c   Data           4  canopen_od.o(.data)
    obj6047_Vlvel_Min_neg                    0x20003090   Data           4  canopen_od.o(.data)
    obj6047_Vlvel_Max_neg                    0x20003094   Data           4  canopen_od.o(.data)
    ObjDict_Index6047                        0x20003098   Data         100  canopen_od.o(.data)
    obj6058_VlfreqMotor_MinMax_amount_subindex 0x200030fc   Data           4  canopen_od.o(.data)
    obj6058_VlfreqMotor_Min_amount           0x20003100   Data           4  canopen_od.o(.data)
    obj6058_VlfreqMotor_Max_amount           0x20003104   Data           4  canopen_od.o(.data)
    ObjDict_Index6058                        0x20003108   Data          60  canopen_od.o(.data)
    obj6059_VlfreqMotor_MinMax_subindex      0x20003144   Data           4  canopen_od.o(.data)
    obj6059_VlfreqMotor_Min_Pos              0x20003148   Data           4  canopen_od.o(.data)
    obj6059_VlfreqMotor_Max_Pos              0x2000314c   Data           4  canopen_od.o(.data)
    obj6059_VlfreqMotor_Min_neg              0x20003150   Data           4  canopen_od.o(.data)
    obj6059_VlfreqMotor_Max_neg              0x20003154   Data           4  canopen_od.o(.data)
    ObjDict_Index6059                        0x20003158   Data         100  canopen_od.o(.data)
    obj6056_VlvelMotor_MinMax_amount_subindex 0x200031bc   Data           4  canopen_od.o(.data)
    obj6056_VlvelMotor_Min_amount            0x200031c0   Data           4  canopen_od.o(.data)
    obj6056_VlvelMotor_Max_amount            0x200031c4   Data           4  canopen_od.o(.data)
    ObjDict_Index6056                        0x200031c8   Data          60  canopen_od.o(.data)
    obj6057_VlvelMotor_MinMax_subindex       0x20003204   Data           4  canopen_od.o(.data)
    obj6057_VlvelMotor_Min_Pos               0x20003208   Data           4  canopen_od.o(.data)
    obj6057_VlvelMotor_Max_Pos               0x2000320c   Data           4  canopen_od.o(.data)
    obj6057_VlvelMotor_Min_neg               0x20003210   Data           4  canopen_od.o(.data)
    obj6057_VlvelMotor_Max_neg               0x20003214   Data           4  canopen_od.o(.data)
    ObjDict_Index6057                        0x20003218   Data         100  canopen_od.o(.data)
    obj6048_Vlvel_Accel_subindex             0x2000327c   Data           4  canopen_od.o(.data)
    obj6048_Vlvel_Accel_deltaSpeed           0x20003280   Data           4  canopen_od.o(.data)
    obj6048_Vlvel_Accel_deltaTime            0x20003284   Data           4  canopen_od.o(.data)
    ObjDict_Index6048                        0x20003288   Data          60  canopen_od.o(.data)
    obj6049_Vlvel_Decel_subindex             0x200032c4   Data           4  canopen_od.o(.data)
    obj6049_Vlvel_Decel_deltaSpeed           0x200032c8   Data           4  canopen_od.o(.data)
    obj6049_Vlvel_Decel_deltaTime            0x200032cc   Data           4  canopen_od.o(.data)
    ObjDict_Index6049                        0x200032d0   Data          60  canopen_od.o(.data)
    obj604A_Vlvel_QuickStop_subindex         0x2000330c   Data           4  canopen_od.o(.data)
    obj604A_Vlvel_QuickStop_deltaSpeed       0x20003310   Data           4  canopen_od.o(.data)
    obj604A_Vlvel_QuickStop_deltaTime        0x20003314   Data           4  canopen_od.o(.data)
    ObjDict_Index604A                        0x20003318   Data          60  canopen_od.o(.data)
    obj604F_Vl_SlopeFunction_time            0x20003354   Data           4  canopen_od.o(.data)
    ObjDict_Index604F                        0x20003358   Data          20  canopen_od.o(.data)
    obj6050_Vl_Decel_time                    0x2000336c   Data           4  canopen_od.o(.data)
    ObjDict_Index6050                        0x20003370   Data          20  canopen_od.o(.data)
    obj6051_Vl_QuickStop_time                0x20003384   Data           4  canopen_od.o(.data)
    ObjDict_Index6051                        0x20003388   Data          20  canopen_od.o(.data)
    obj6044_Vl_Control_effort                0x2000339c   Data           2  canopen_od.o(.data)
    ObjDict_Index6044                        0x200033a0   Data          20  canopen_od.o(.data)
    obj6045_Vlvel_Manipulated                0x200033b4   Data           2  canopen_od.o(.data)
    ObjDict_Index6045                        0x200033b8   Data          20  canopen_od.o(.data)
    obj6052_Vl_Nominal_percentage            0x200033cc   Data           2  canopen_od.o(.data)
    ObjDict_Index6052                        0x200033d0   Data          20  canopen_od.o(.data)
    ObjDict_Index2001_callbacks              0x200033e4   Data           4  canopen_od.o(.data)
    CANopen_Drive                            0x200033e8   Data         596  canopen_od.o(.data)
    pPdoPar                                  0x2000363c   Data         704  canopen_od.o(.data)
    pHeartBeatPar                            0x200038fc   Data          12  canopen_od.o(.data)
    Ob_ID                                    0x20003908   Data          20  canopen_od.o(.data)
    total_sleep_time                         0x2000391c   Data           4  canopen_timer.o(.data)
    last_timer_raw                           0x20003920   Data           2  canopen_timer.o(.data)
    last_time_set                            0x20003924   Data           4  canopen_timer.o(.data)
    TimeCNT                                  0x20003928   Data           4  canopen_timer.o(.data)
    NextTime                                 0x2000392c   Data           4  canopen_timer.o(.data)
    FirstSector                              0x20003930   Data           4  flash.o(.data)
    NbOfSectors                              0x20003934   Data           4  flash.o(.data)
    Address                                  0x20003938   Data           4  flash.o(.data)
    SectorError                              0x2000393c   Data           4  flash.o(.data)
    MemoryProgramStatus                      0x20003940   Data           4  flash.o(.data)
    reflag                                   0x20003948   Data           1  agreement.o(.data)
    Flash_Writesign                          0x20003949   Data           1  agreement.o(.data)
    count                                    0x2000394a   Data           2  agreement.o(.data)
    SendBuf1                                 0x2000394c   Data           4  agreement.o(.data)
    SendBuf2                                 0x20003950   Data           5  agreement.o(.data)
    SendBuf3                                 0x20003955   Data           4  agreement.o(.data)
    txflag                                   0x20003959   Data           1  agreement.o(.data)
    ErrTime1                                 0x2000395c   Data           4  agreement.o(.data)
    SendFlag                                 0x20003960   Data           1  agreement.o(.data)
    ReceiveFlag                              0x20003961   Data           1  agreement.o(.data)
    test                                     0x20003964   Data           4  agreement.o(.data)
    __stdout                                 0x20003968   Data           4  stdout.o(.data)
    hcan1                                    0x2000396c   Data          68  main.o(.bss)
    hcan2                                    0x200039b0   Data          68  main.o(.bss)
    TxMessage                                0x200039f4   Data          28  main.o(.bss)
    RxMessage                                0x20003a10   Data          36  main.o(.bss)
    ProgramVersion                           0x20003a34   Data          16  main.o(.bss)
    strCapture                               0x20003a44   Data          10  main.o(.bss)
    hadc1                                    0x20003a50   Data         100  main.o(.bss)
    hdma_adc1                                0x20003ab4   Data          96  main.o(.bss)
    htim1                                    0x20003b14   Data          64  main.o(.bss)
    htim2                                    0x20003b54   Data          64  main.o(.bss)
    htim3                                    0x20003b94   Data          64  main.o(.bss)
    htim4                                    0x20003bd4   Data          64  main.o(.bss)
    htim5                                    0x20003c14   Data          64  main.o(.bss)
    htim6                                    0x20003c54   Data          64  main.o(.bss)
    htim7                                    0x20003c94   Data          64  main.o(.bss)
    htim8                                    0x20003cd4   Data          64  main.o(.bss)
    htim9                                    0x20003d14   Data          64  main.o(.bss)
    htim10                                   0x20003d54   Data          64  main.o(.bss)
    htim11                                   0x20003d94   Data          64  main.o(.bss)
    htim12                                   0x20003dd4   Data          64  main.o(.bss)
    huart3                                   0x20003e14   Data          64  main.o(.bss)
    ADC_ConvertedValue                       0x20003e54   Data          48  main.o(.bss)
    aRxBuffer                                0x20003e84   Data          50  main.o(.bss)
    LV_Uart_TxBuffer                         0x20003eb6   Data       16000  main.o(.bss)
    Err_codeHis                              0x20007d38   Data          40  main.o(.bss)
    Err_codeTick                             0x20007d60   Data          40  main.o(.bss)
    LV_TxBuffer                              0x20007d88   Data          20  main.o(.bss)
    phasecount                               0x20007d9c   Data          20  main.o(.bss)
    avgle                                    0x20007db0   Data          20  main.o(.bss)
    pFlash                                   0x20007dc4   Data          32  stm32f4xx_hal_flash.o(.bss)
    VoltVar                                  0x20007de4   Data          26  function.o(.bss)
    Motor5_Current_temp                      0x20007e00   Data          16  function.o(.bss)
    Motor6_Current_temp                      0x20007e10   Data          16  function.o(.bss)
    Stuck_TimeCnt                            0x20007e20   Data          28  function.o(.bss)
    NeedToCheekPush                          0x20007e3c   Data          14  function.o(.bss)
    Push_Error_Cheek_Cnt                     0x20007e4c   Data          56  function.o(.bss)
    Push_curr_temp                           0x20007e84   Data          56  function.o(.bss)
    Sys_Ticktemp                             0x20007ebc   Data          40  function.o(.bss)
    M5_100us_ac_ab_bc_cur                    0x20007ee4   Data          12  function.o(.bss)
    M6_100us_ac_ab_bc_cur                    0x20007ef0   Data          12  function.o(.bss)
    PID_Speed_InitStruct                     0x20007efc   Data         112  mc_pid_regulators.o(.bss)
    PID_Current_InitStructure                0x20007f6c   Data         112  mc_pid_regulators.o(.bss)
    PID_PWM                                  0x20007fdc   Data          56  mc_pid_regulators.o(.bss)
    htimx_BDCMOTOR                           0x20008014   Data          64  bsp_bdcmotor.o(.bss)
    MotorControl                             0x20008054   Data        1736  bsp_bdcmotor.o(.bss)
    HALL_Study                               0x2000871c   Data          36  bsp_bdcmotor.o(.bss)
    hiwdg                                    0x20008740   Data          12  bsp_iwdg.o(.bss)
    testGl                                   0x2000874c   Data         200  canopen_od.o(.bss)
    testStr                                  0x20008814   Data          50  canopen_od.o(.bss)
    TimeConsume                              0x20008848   Data          16  canopen_od.o(.bss)
    CanLoadRate                              0x20008858   Data          16  canopen_od.o(.bss)
    PDO_Trans_chache                         0x20008868   Data         144  canopen_od.o(.bss)
    ObjDict_heartBeatTimers                  0x200088f8   Data          10  canopen_od.o(.bss)
    test111                                  0x20008904   Data          40  canopen_od.o(.bss)
    ObjDict_Index2000_callbacks              0x2000892c   Data          12  canopen_od.o(.bss)
    pRpdoDirectPar                           0x20008938   Data         448  canopen_od.o(.bss)
    TIM6_Handler                             0x20008af8   Data          64  canopen_timer.o(.bss)
    timers                                   0x20008b38   Data         192  canopen_timer.o(.bss)
    tempbuf                                  0x20008bf8   Data        1000  flash.o(.bss)
    aRxBuffer1                               0x20008ff4   Data         200  agreement.o(.bss)
    SendBuf                                  0x200090bc   Data         200  agreement.o(.bss)
    husart_debug                             0x20009184   Data          64  agreement.o(.bss)
    transbuf                                 0x200091c4   Data        1000  agreement.o(.bss)
    __initial_sp                             0x2000a5b0   Data           0  startup_stm32f407xx.o(STACK)



==============================================================================

Memory Map of the image

  Image Entry point : 0x08000189

  Load Region LR_IROM1 (Base: 0x08000000, Size: 0x00013b84, Max: 0x00040000, ABSOLUTE, COMPRESSED[0x00011320])

    Execution Region ER_IROM1 (Exec base: 0x08000000, Load base: 0x08000000, Size: 0x00010218, Max: 0x00040000, ABSOLUTE)

    Exec Addr    Load Addr    Size         Type   Attr      Idx    E Section Name        Object

    0x08000000   0x08000000   0x00000188   Data   RO            3    RESET               startup_stm32f407xx.o
    0x08000188   0x08000188   0x00000000   Code   RO         5325  * .ARM.Collect$$$$00000000  mc_w.l(entry.o)
    0x08000188   0x08000188   0x00000004   Code   RO         5611    .ARM.Collect$$$$00000001  mc_w.l(entry2.o)
    0x0800018c   0x0800018c   0x00000004   Code   RO         5614    .ARM.Collect$$$$00000004  mc_w.l(entry5.o)
    0x08000190   0x08000190   0x00000000   Code   RO         5616    .ARM.Collect$$$$00000008  mc_w.l(entry7b.o)
    0x08000190   0x08000190   0x00000000   Code   RO         5618    .ARM.Collect$$$$0000000A  mc_w.l(entry8b.o)
    0x08000190   0x08000190   0x00000008   Code   RO         5619    .ARM.Collect$$$$0000000B  mc_w.l(entry9a.o)
    0x08000198   0x08000198   0x00000000   Code   RO         5621    .ARM.Collect$$$$0000000D  mc_w.l(entry10a.o)
    0x08000198   0x08000198   0x00000000   Code   RO         5623    .ARM.Collect$$$$0000000F  mc_w.l(entry11a.o)
    0x08000198   0x08000198   0x00000004   Code   RO         5612    .ARM.Collect$$$$00002712  mc_w.l(entry2.o)
    0x0800019c   0x0800019c   0x00000024   Code   RO            4    .text               startup_stm32f407xx.o
    0x080001c0   0x080001c0   0x00000062   Code   RO         5328    .text               mc_w.l(uldiv.o)
    0x08000222   0x08000222   0x00000024   Code   RO         5330    .text               mc_w.l(memcpya.o)
    0x08000246   0x08000246   0x00000024   Code   RO         5332    .text               mc_w.l(memseta.o)
    0x0800026a   0x0800026a   0x0000001a   Code   RO         5334    .text               mc_w.l(memcmp.o)
    0x08000284   0x08000284   0x000000e4   Code   RO         5599    .text               mf_w.l(dmul.o)
    0x08000368   0x08000368   0x00000022   Code   RO         5601    .text               mf_w.l(dflti.o)
    0x0800038a   0x0800038a   0x0000003e   Code   RO         5603    .text               mf_w.l(dfixi.o)
    0x080003c8   0x080003c8   0x00000026   Code   RO         5605    .text               mf_w.l(f2d.o)
    0x080003ee   0x080003ee   0x00000002   PAD
    0x080003f0   0x080003f0   0x00000030   Code   RO         5607    .text               mf_w.l(cdcmple.o)
    0x08000420   0x08000420   0x00000030   Code   RO         5609    .text               mf_w.l(cdrcmple.o)
    0x08000450   0x08000450   0x0000002c   Code   RO         5626    .text               mc_w.l(uidiv.o)
    0x0800047c   0x0800047c   0x0000001e   Code   RO         5628    .text               mc_w.l(llshl.o)
    0x0800049a   0x0800049a   0x00000020   Code   RO         5630    .text               mc_w.l(llushr.o)
    0x080004ba   0x080004ba   0x00000000   Code   RO         5632    .text               mc_w.l(iusefp.o)
    0x080004ba   0x080004ba   0x000000ba   Code   RO         5633    .text               mf_w.l(depilogue.o)
    0x08000574   0x08000574   0x00000024   Code   RO         5641    .text               mc_w.l(init.o)
    0x08000598   0x08000598   0x00000056   Code   RO         5653    .text               mc_w.l(__dczerorl2.o)
    0x080005ee   0x080005ee   0x0000007e   Code   RO          680    i.ADC_DMAConvCplt   stm32f4xx_hal_adc.o
    0x0800066c   0x0800066c   0x0000001a   Code   RO          681    i.ADC_DMAError      stm32f4xx_hal_adc.o
    0x08000686   0x08000686   0x0000000e   Code   RO          682    i.ADC_DMAHalfConvCplt  stm32f4xx_hal_adc.o
    0x08000694   0x08000694   0x00000010   Code   RO          391    i.ADC_IRQHandler    stm32f4xx_it.o
    0x080006a4   0x080006a4   0x00000160   Code   RO          683    i.ADC_Init          stm32f4xx_hal_adc.o
    0x08000804   0x08000804   0x000000fc   Code   RO         3715    i.BLDC1_OverSpdChk  function.o
    0x08000900   0x08000900   0x00000168   Code   RO         3971    i.BLDC1_PhaseChange  bsp_bdcmotor.o
    0x08000a68   0x08000a68   0x00000100   Code   RO         3716    i.BLDC2_OverSpdChk  function.o
    0x08000b68   0x08000b68   0x0000019c   Code   RO         3972    i.BLDC2_PhaseChange  bsp_bdcmotor.o
    0x08000d04   0x08000d04   0x0000009c   Code   RO         3717    i.BLDC5_Phase_Check  function.o
    0x08000da0   0x08000da0   0x0000009c   Code   RO         3718    i.BLDC6_Phase_Check  function.o
    0x08000e3c   0x08000e3c   0x00000180   Code   RO         3719    i.BLDC_Stuck_Chk    function.o
    0x08000fbc   0x08000fbc   0x0000006e   Code   RO         3720    i.BubbleSort        function.o
    0x0800102a   0x0800102a   0x00000004   Code   RO          392    i.BusFault_Handler  stm32f4xx_it.o
    0x0800102e   0x0800102e   0x00000002   PAD
    0x08001030   0x08001030   0x00000084   Code   RO           13    i.CAN1_Send_Msg     main.o
    0x080010b4   0x080010b4   0x00000010   Code   RO          393    i.CAN2_RX0_IRQHandler  stm32f4xx_it.o
    0x080010c4   0x080010c4   0x000001b6   Code   RO         2248    i.CAN_Receive_IT    stm32f4xx_hal_can.o
    0x0800127a   0x0800127a   0x00000062   Code   RO         2249    i.CAN_Transmit_IT   stm32f4xx_hal_can.o
    0x080012dc   0x080012dc   0x00000098   Code   RO         4129    i.CANopen_Parameter_Init  canopen_od.o
    0x08001374   0x08001374   0x00000026   Code   RO         4519    i.ConsumerHeartbeatAlarm  Canopen.lib(canopen_lifegrd.o)
    0x0800139a   0x0800139a   0x00000098   Code   RO         4929    i.CopyBits          Canopen.lib(canopen_pdo.o)
    0x08001432   0x08001432   0x00000002   PAD
    0x08001434   0x08001434   0x00000318   Code   RO         3721    i.CurrentLimit      function.o
    0x0800174c   0x0800174c   0x00000010   Code   RO          394    i.DMA2_Stream0_IRQHandler  stm32f4xx_it.o
    0x0800175c   0x0800175c   0x00000034   Code   RO         1570    i.DMA_CalcBaseAndBitshift  stm32f4xx_hal_dma.o
    0x08001790   0x08001790   0x000000aa   Code   RO         1571    i.DMA_CheckFifoParam  stm32f4xx_hal_dma.o
    0x0800183a   0x0800183a   0x0000002c   Code   RO         1572    i.DMA_SetConfig     stm32f4xx_hal_dma.o
    0x08001866   0x08001866   0x00000002   Code   RO          395    i.DebugMon_Handler  stm32f4xx_it.o
    0x08001868   0x08001868   0x00000038   Code   RO         4237    i.DelAlarm          canopen_timer.o
    0x080018a0   0x080018a0   0x0000000a   Code   RO          396    i.EXTI0_IRQHandler  stm32f4xx_it.o
    0x080018aa   0x080018aa   0x0000002c   Code   RO          397    i.EXTI15_10_IRQHandler  stm32f4xx_it.o
    0x080018d6   0x080018d6   0x0000000a   Code   RO          398    i.EXTI1_IRQHandler  stm32f4xx_it.o
    0x080018e0   0x080018e0   0x0000000a   Code   RO          399    i.EXTI2_IRQHandler  stm32f4xx_it.o
    0x080018ea   0x080018ea   0x0000000a   Code   RO          400    i.EXTI3_IRQHandler  stm32f4xx_it.o
    0x080018f4   0x080018f4   0x0000000a   Code   RO          401    i.EXTI4_IRQHandler  stm32f4xx_it.o
    0x080018fe   0x080018fe   0x0000001e   Code   RO          402    i.EXTI9_5_IRQHandler  stm32f4xx_it.o
    0x0800191c   0x0800191c   0x00000006   Code   RO           14    i.Error_Handler     main.o
    0x08001922   0x08001922   0x00000002   PAD
    0x08001924   0x08001924   0x0000005c   Code   RO         1340    i.FLASH_Erase_Sector  stm32f4xx_hal_flash_ex.o
    0x08001980   0x08001980   0x00000078   Code   RO         1341    i.FLASH_FlushCaches  stm32f4xx_hal_flash_ex.o
    0x080019f8   0x080019f8   0x00000030   Code   RO         1342    i.FLASH_MassErase   stm32f4xx_hal_flash_ex.o
    0x08001a28   0x08001a28   0x00000024   Code   RO         1222    i.FLASH_Program_Byte  stm32f4xx_hal_flash.o
    0x08001a4c   0x08001a4c   0x0000003c   Code   RO         1223    i.FLASH_Program_DoubleWord  stm32f4xx_hal_flash.o
    0x08001a88   0x08001a88   0x00000028   Code   RO         1224    i.FLASH_Program_HalfWord  stm32f4xx_hal_flash.o
    0x08001ab0   0x08001ab0   0x00000028   Code   RO         1225    i.FLASH_Program_Word  stm32f4xx_hal_flash.o
    0x08001ad8   0x08001ad8   0x00000098   Code   RO         1226    i.FLASH_SetErrorCode  stm32f4xx_hal_flash.o
    0x08001b70   0x08001b70   0x00000064   Code   RO         1227    i.FLASH_WaitForLastOperation  stm32f4xx_hal_flash.o
    0x08001bd4   0x08001bd4   0x0000003c   Code   RO         4353    i.Flash_Read        flash.o
    0x08001c10   0x08001c10   0x00000024   Code   RO         4411    i.Flash_WriteCheck  agreement.o
    0x08001c34   0x08001c34   0x00000078   Code   RO         3973    i.GetMotorSpeed     bsp_bdcmotor.o
    0x08001cac   0x08001cac   0x000000e4   Code   RO         4354    i.GetSector         flash.o
    0x08001d90   0x08001d90   0x00000070   Code   RO         3974    i.HALLSTUDY_PhaseChange0  bsp_bdcmotor.o
    0x08001e00   0x08001e00   0x00000070   Code   RO         3975    i.HALLSTUDY_PhaseChange1  bsp_bdcmotor.o
    0x08001e70   0x08001e70   0x00000038   Code   RO         3976    i.HALL_GetPhase2    bsp_bdcmotor.o
    0x08001ea8   0x08001ea8   0x00000002   Code   RO          965    i.HAL_ADCEx_InjectedConvCpltCallback  stm32f4xx_hal_adc_ex.o
    0x08001eaa   0x08001eaa   0x00000002   PAD
    0x08001eac   0x08001eac   0x00000088   Code   RO          684    i.HAL_ADC_AnalogWDGConfig  stm32f4xx_hal_adc.o
    0x08001f34   0x08001f34   0x0000018c   Code   RO          685    i.HAL_ADC_ConfigChannel  stm32f4xx_hal_adc.o
    0x080020c0   0x080020c0   0x00000002   Code   RO           15    i.HAL_ADC_ConvCpltCallback  main.o
    0x080020c2   0x080020c2   0x00000002   Code   RO          687    i.HAL_ADC_ConvHalfCpltCallback  stm32f4xx_hal_adc.o
    0x080020c4   0x080020c4   0x00000002   Code   RO          689    i.HAL_ADC_ErrorCallback  stm32f4xx_hal_adc.o
    0x080020c6   0x080020c6   0x00000174   Code   RO          693    i.HAL_ADC_IRQHandler  stm32f4xx_hal_adc.o
    0x0800223a   0x0800223a   0x00000002   PAD
    0x0800223c   0x0800223c   0x0000009c   Code   RO          694    i.HAL_ADC_Init      stm32f4xx_hal_adc.o
    0x080022d8   0x080022d8   0x0000003c   Code   RO         4088    i.HAL_ADC_LevelOutOfWindowCallback  bsp_iwdg.o
    0x08002314   0x08002314   0x00000100   Code   RO          590    i.HAL_ADC_MspInit   stm32f4xx_hal_msp.o
    0x08002414   0x08002414   0x00000184   Code   RO          702    i.HAL_ADC_Start_DMA  stm32f4xx_hal_adc.o
    0x08002598   0x08002598   0x00000002   Code   RO         2252    i.HAL_CAN_ErrorCallback  stm32f4xx_hal_can.o
    0x0800259a   0x0800259a   0x00000002   PAD
    0x0800259c   0x0800259c   0x00000254   Code   RO         2255    i.HAL_CAN_IRQHandler  stm32f4xx_hal_can.o
    0x080027f0   0x080027f0   0x0000010c   Code   RO         2260    i.HAL_CAN_Receive_IT  stm32f4xx_hal_can.o
    0x080028fc   0x080028fc   0x00000068   Code   RO           16    i.HAL_CAN_RxCpltCallback  main.o
    0x08002964   0x08002964   0x000002b8   Code   RO         2263    i.HAL_CAN_Transmit  stm32f4xx_hal_can.o
    0x08002c1c   0x08002c1c   0x00000002   Code   RO         2265    i.HAL_CAN_TxCpltCallback  stm32f4xx_hal_can.o
    0x08002c1e   0x08002c1e   0x00000028   Code   RO         1574    i.HAL_DMA_Abort_IT  stm32f4xx_hal_dma.o
    0x08002c46   0x08002c46   0x00000002   PAD
    0x08002c48   0x08002c48   0x00000240   Code   RO         1578    i.HAL_DMA_IRQHandler  stm32f4xx_hal_dma.o
    0x08002e88   0x08002e88   0x000000ec   Code   RO         1579    i.HAL_DMA_Init      stm32f4xx_hal_dma.o
    0x08002f74   0x08002f74   0x00000092   Code   RO         1583    i.HAL_DMA_Start_IT  stm32f4xx_hal_dma.o
    0x08003006   0x08003006   0x00000002   PAD
    0x08003008   0x08003008   0x00000028   Code   RO         1997    i.HAL_Delay         stm32f4xx_hal.o
    0x08003030   0x08003030   0x000000ac   Code   RO         1352    i.HAL_FLASHEx_Erase  stm32f4xx_hal_flash_ex.o
    0x080030dc   0x080030dc   0x00000014   Code   RO         1231    i.HAL_FLASH_Lock    stm32f4xx_hal_flash.o
    0x080030f0   0x080030f0   0x00000098   Code   RO         1236    i.HAL_FLASH_Program  stm32f4xx_hal_flash.o
    0x08003188   0x08003188   0x00000034   Code   RO         1238    i.HAL_FLASH_Unlock  stm32f4xx_hal_flash.o
    0x080031bc   0x080031bc   0x00000854   Code   RO          403    i.HAL_GPIO_EXTI_Callback  stm32f4xx_it.o
    0x08003a10   0x08003a10   0x0000001c   Code   RO         1465    i.HAL_GPIO_EXTI_IRQHandler  stm32f4xx_hal_gpio.o
    0x08003a2c   0x08003a2c   0x00000200   Code   RO         1466    i.HAL_GPIO_Init     stm32f4xx_hal_gpio.o
    0x08003c2c   0x08003c2c   0x00000010   Code   RO         1468    i.HAL_GPIO_ReadPin  stm32f4xx_hal_gpio.o
    0x08003c3c   0x08003c3c   0x00000012   Code   RO         1469    i.HAL_GPIO_TogglePin  stm32f4xx_hal_gpio.o
    0x08003c4e   0x08003c4e   0x0000000c   Code   RO         1470    i.HAL_GPIO_WritePin  stm32f4xx_hal_gpio.o
    0x08003c5a   0x08003c5a   0x00000002   PAD
    0x08003c5c   0x08003c5c   0x0000000c   Code   RO         2003    i.HAL_GetTick       stm32f4xx_hal.o
    0x08003c68   0x08003c68   0x00000050   Code   RO         3648    i.HAL_IWDG_Init     stm32f4xx_hal_iwdg.o
    0x08003cb8   0x08003cb8   0x0000000e   Code   RO         3649    i.HAL_IWDG_Refresh  stm32f4xx_hal_iwdg.o
    0x08003cc6   0x08003cc6   0x00000002   PAD
    0x08003cc8   0x08003cc8   0x00000018   Code   RO         2009    i.HAL_IncTick       stm32f4xx_hal.o
    0x08003ce0   0x08003ce0   0x0000003c   Code   RO         2010    i.HAL_Init          stm32f4xx_hal.o
    0x08003d1c   0x08003d1c   0x0000004c   Code   RO         2011    i.HAL_InitTick      stm32f4xx_hal.o
    0x08003d68   0x08003d68   0x00000050   Code   RO          593    i.HAL_MspInit       stm32f4xx_hal_msp.o
    0x08003db8   0x08003db8   0x00000044   Code   RO         1854    i.HAL_NVIC_DisableIRQ  stm32f4xx_hal_cortex.o
    0x08003dfc   0x08003dfc   0x00000020   Code   RO         1855    i.HAL_NVIC_EnableIRQ  stm32f4xx_hal_cortex.o
    0x08003e1c   0x08003e1c   0x0000007c   Code   RO         1861    i.HAL_NVIC_SetPriority  stm32f4xx_hal_cortex.o
    0x08003e98   0x08003e98   0x00000028   Code   RO         1862    i.HAL_NVIC_SetPriorityGrouping  stm32f4xx_hal_cortex.o
    0x08003ec0   0x08003ec0   0x00000184   Code   RO         1067    i.HAL_RCC_ClockConfig  stm32f4xx_hal_rcc.o
    0x08004044   0x08004044   0x0000000c   Code   RO         1072    i.HAL_RCC_GetHCLKFreq  stm32f4xx_hal_rcc.o
    0x08004050   0x08004050   0x00000020   Code   RO         1074    i.HAL_RCC_GetPCLK1Freq  stm32f4xx_hal_rcc.o
    0x08004070   0x08004070   0x00000020   Code   RO         1075    i.HAL_RCC_GetPCLK2Freq  stm32f4xx_hal_rcc.o
    0x08004090   0x08004090   0x000000b0   Code   RO         1076    i.HAL_RCC_GetSysClockFreq  stm32f4xx_hal_rcc.o
    0x08004140   0x08004140   0x00000488   Code   RO         1079    i.HAL_RCC_OscConfig  stm32f4xx_hal_rcc.o
    0x080045c8   0x080045c8   0x00000028   Code   RO         1864    i.HAL_SYSTICK_CLKSourceConfig  stm32f4xx_hal_cortex.o
    0x080045f0   0x080045f0   0x00000470   Code   RO           17    i.HAL_SYSTICK_Callback  main.o
    0x08004a60   0x08004a60   0x00000034   Code   RO         1866    i.HAL_SYSTICK_Config  stm32f4xx_hal_cortex.o
    0x08004a94   0x08004a94   0x00000008   Code   RO         1867    i.HAL_SYSTICK_IRQHandler  stm32f4xx_hal_cortex.o
    0x08004a9c   0x08004a9c   0x00000078   Code   RO           18    i.HAL_TIMEx_BreakCallback  main.o
    0x08004b14   0x08004b14   0x00000002   Code   RO         3067    i.HAL_TIMEx_CommutCallback  stm32f4xx_hal_tim_ex.o
    0x08004b16   0x08004b16   0x00000074   Code   RO         3069    i.HAL_TIMEx_ConfigBreakDeadTime  stm32f4xx_hal_tim_ex.o
    0x08004b8a   0x08004b8a   0x00000002   PAD
    0x08004b8c   0x08004b8c   0x000000b4   Code   RO         3084    i.HAL_TIMEx_MasterConfigSynchronization  stm32f4xx_hal_tim_ex.o
    0x08004c40   0x08004c40   0x00000038   Code   RO         3095    i.HAL_TIMEx_PWMN_Start  stm32f4xx_hal_tim_ex.o
    0x08004c78   0x08004c78   0x00000034   Code   RO         2380    i.HAL_TIM_Base_Init  stm32f4xx_hal_tim.o
    0x08004cac   0x08004cac   0x00000320   Code   RO          595    i.HAL_TIM_Base_MspInit  stm32f4xx_hal_msp.o
    0x08004fcc   0x08004fcc   0x0000002a   Code   RO         2385    i.HAL_TIM_Base_Start_IT  stm32f4xx_hal_tim.o
    0x08004ff6   0x08004ff6   0x00000108   Code   RO         2389    i.HAL_TIM_ConfigClockSource  stm32f4xx_hal_tim.o
    0x080050fe   0x080050fe   0x00000002   PAD
    0x08005100   0x08005100   0x00000048   Code   RO           19    i.HAL_TIM_IC_CaptureCallback  main.o
    0x08005148   0x08005148   0x000000e0   Code   RO         2411    i.HAL_TIM_IC_ConfigChannel  stm32f4xx_hal_tim.o
    0x08005228   0x08005228   0x00000034   Code   RO         2414    i.HAL_TIM_IC_Init   stm32f4xx_hal_tim.o
    0x0800525c   0x0800525c   0x00000094   Code   RO          597    i.HAL_TIM_IC_MspInit  stm32f4xx_hal_msp.o
    0x080052f0   0x080052f0   0x00000078   Code   RO         2419    i.HAL_TIM_IC_Start_IT  stm32f4xx_hal_tim.o
    0x08005368   0x08005368   0x00000196   Code   RO         2423    i.HAL_TIM_IRQHandler  stm32f4xx_hal_tim.o
    0x080054fe   0x080054fe   0x00000002   PAD
    0x08005500   0x08005500   0x0000031c   Code   RO          598    i.HAL_TIM_MspPostInit  stm32f4xx_hal_msp.o
    0x0800581c   0x0800581c   0x00000074   Code   RO         2424    i.HAL_TIM_OC_ConfigChannel  stm32f4xx_hal_tim.o
    0x08005890   0x08005890   0x00000378   Code   RO           20    i.HAL_TIM_OC_DelayElapsedCallback  main.o
    0x08005c08   0x08005c08   0x00000034   Code   RO         2428    i.HAL_TIM_OC_Init   stm32f4xx_hal_tim.o
    0x08005c3c   0x08005c3c   0x00000002   Code   RO         2430    i.HAL_TIM_OC_MspInit  stm32f4xx_hal_tim.o
    0x08005c3e   0x08005c3e   0x00000002   PAD
    0x08005c40   0x08005c40   0x000000a4   Code   RO         2433    i.HAL_TIM_OC_Start_IT  stm32f4xx_hal_tim.o
    0x08005ce4   0x08005ce4   0x00000108   Code   RO         2447    i.HAL_TIM_PWM_ConfigChannel  stm32f4xx_hal_tim.o
    0x08005dec   0x08005dec   0x00000034   Code   RO         2450    i.HAL_TIM_PWM_Init  stm32f4xx_hal_tim.o
    0x08005e20   0x08005e20   0x00000002   Code   RO         2452    i.HAL_TIM_PWM_MspInit  stm32f4xx_hal_tim.o
    0x08005e22   0x08005e22   0x00000002   Code   RO         2453    i.HAL_TIM_PWM_PulseFinishedCallback  stm32f4xx_hal_tim.o
    0x08005e24   0x08005e24   0x00000058   Code   RO         2455    i.HAL_TIM_PWM_Start  stm32f4xx_hal_tim.o
    0x08005e7c   0x08005e7c   0x00000650   Code   RO           21    i.HAL_TIM_PeriodElapsedCallback  main.o
    0x080064cc   0x080064cc   0x00000032   Code   RO         2463    i.HAL_TIM_ReadCapturedValue  stm32f4xx_hal_tim.o
    0x080064fe   0x080064fe   0x00000002   Code   RO         2466    i.HAL_TIM_TriggerCallback  stm32f4xx_hal_tim.o
    0x08006500   0x08006500   0x00000002   Code   RO         3338    i.HAL_UART_ErrorCallback  stm32f4xx_hal_uart.o
    0x08006502   0x08006502   0x00000002   PAD
    0x08006504   0x08006504   0x00000154   Code   RO         3341    i.HAL_UART_IRQHandler  stm32f4xx_hal_uart.o
    0x08006658   0x08006658   0x00000072   Code   RO         3342    i.HAL_UART_Init     stm32f4xx_hal_uart.o
    0x080066ca   0x080066ca   0x00000002   PAD
    0x080066cc   0x080066cc   0x00000098   Code   RO          600    i.HAL_UART_MspInit  stm32f4xx_hal_msp.o
    0x08006764   0x08006764   0x00000070   Code   RO         3347    i.HAL_UART_Receive_IT  stm32f4xx_hal_uart.o
    0x080067d4   0x080067d4   0x00000002   Code   RO         4412    i.HAL_UART_RxCpltCallback  agreement.o
    0x080067d6   0x080067d6   0x000000d8   Code   RO         3350    i.HAL_UART_Transmit  stm32f4xx_hal_uart.o
    0x080068ae   0x080068ae   0x00000002   Code   RO         3353    i.HAL_UART_TxCpltCallback  stm32f4xx_hal_uart.o
    0x080068b0   0x080068b0   0x00000128   Code   RO         3977    i.HallStudyHandle0  bsp_bdcmotor.o
    0x080069d8   0x080069d8   0x00000138   Code   RO         3978    i.HallStudyHandle1  bsp_bdcmotor.o
    0x08006b10   0x08006b10   0x00000004   Code   RO          404    i.HardFault_Handler  stm32f4xx_it.o
    0x08006b14   0x08006b14   0x0000001c   Code   RO         3723    i.HardVersion_Init  function.o
    0x08006b30   0x08006b30   0x000000f0   Code   RO         3724    i.Hardware_flowCheck  function.o
    0x08006c20   0x08006c20   0x000000cc   Code   RO         4520    i.HeartBeat_Message_Handle  Canopen.lib(canopen_lifegrd.o)
    0x08006cec   0x08006cec   0x00000408   Code   RO         3725    i.Init_Drive_Para   function.o
    0x080070f4   0x080070f4   0x0000011c   Code   RO         4355    i.InternalFlash     flash.o
    0x08007210   0x08007210   0x000002a8   Code   RO           22    i.Labview_uart      main.o
    0x080074b8   0x080074b8   0x00000020   Code   RO         3727    i.MC_ClearFault     function.o
    0x080074d8   0x080074d8   0x00000038   Code   RO         3728    i.MC_SetFault       function.o
    0x08007510   0x08007510   0x00000038   Code   RO         3729    i.MC_SetFault1      function.o
    0x08007548   0x08007548   0x0000019c   Code   RO           23    i.MX_ADC1_Init      main.o
    0x080076e4   0x080076e4   0x00000028   Code   RO           25    i.MX_DMA_Init       main.o
    0x0800770c   0x0800770c   0x00000204   Code   RO           26    i.MX_GPIO_Init      main.o
    0x08007910   0x08007910   0x00000020   Code   RO         4089    i.MX_IWDG_Init      bsp_iwdg.o
    0x08007930   0x08007930   0x0000010e   Code   RO           27    i.MX_NVIC_Init      main.o
    0x08007a3e   0x08007a3e   0x00000002   PAD
    0x08007a40   0x08007a40   0x00000070   Code   RO           28    i.MX_TIM10_Init     main.o
    0x08007ab0   0x08007ab0   0x00000070   Code   RO           29    i.MX_TIM11_Init     main.o
    0x08007b20   0x08007b20   0x00000070   Code   RO           30    i.MX_TIM12_Init     main.o
    0x08007b90   0x08007b90   0x00000170   Code   RO           31    i.MX_TIM1_Init      main.o
    0x08007d00   0x08007d00   0x000000dc   Code   RO           32    i.MX_TIM2_Init      main.o
    0x08007ddc   0x08007ddc   0x000000e4   Code   RO           33    i.MX_TIM3_Init      main.o
    0x08007ec0   0x08007ec0   0x000000e0   Code   RO           34    i.MX_TIM4_Init      main.o
    0x08007fa0   0x08007fa0   0x00000070   Code   RO           35    i.MX_TIM5_Init      main.o
    0x08008010   0x08008010   0x0000004c   Code   RO           36    i.MX_TIM7_Init      main.o
    0x0800805c   0x0800805c   0x00000148   Code   RO           37    i.MX_TIM8_Init      main.o
    0x080081a4   0x080081a4   0x0000008c   Code   RO           38    i.MX_TIM9_Init      main.o
    0x08008230   0x08008230   0x00000038   Code   RO         4413    i.MX_USART3_UART_Init  agreement.o
    0x08008268   0x08008268   0x00000004   Code   RO          405    i.MemManage_Handler  stm32f4xx_it.o
    0x0800826c   0x0800826c   0x0000005e   Code   RO         4783    i.MessageType_Check  Canopen.lib(canopen_nmt.o)
    0x080082ca   0x080082ca   0x00000002   PAD
    0x080082cc   0x080082cc   0x000001a8   Code   RO         3730    i.Motor5_Default_Phase_Cheek  function.o
    0x08008474   0x08008474   0x000001a8   Code   RO         3731    i.Motor6_Default_Phase_Cheek  function.o
    0x0800861c   0x0800861c   0x00000050   Code   RO         3732    i.Motor7_Err_Chk    function.o
    0x0800866c   0x0800866c   0x00000016   Code   RO         3733    i.MotorStuckCheck   function.o
    0x08008682   0x08008682   0x00000002   PAD
    0x08008684   0x08008684   0x00000194   Code   RO         3734    i.Motor_Fault_Clear  function.o
    0x08008818   0x08008818   0x00000004   Code   RO          406    i.NMI_Handler       stm32f4xx_it.o
    0x0800881c   0x0800881c   0x000000b0   Code   RO         4784    i.Net_Manager_Handle  Canopen.lib(canopen_nmt.o)
    0x080088cc   0x080088cc   0x0000004c   Code   RO         4130    i.ODCallback_t_Index1010_Subindex1  canopen_od.o
    0x08008918   0x08008918   0x00000080   Code   RO         4521    i.ODCallback_t_Index1016_Subindex  Canopen.lib(canopen_lifegrd.o)
    0x08008998   0x08008998   0x00000034   Code   RO         4134    i.ODCallback_t_Index2098_Subindex0  canopen_od.o
    0x080089cc   0x080089cc   0x0000004e   Code   RO         4135    i.ODCallback_t_Index2099_Subindex0  canopen_od.o
    0x08008a1a   0x08008a1a   0x00000002   PAD
    0x08008a1c   0x08008a1c   0x00000054   Code   RO         4930    i.ODCallback_t_RPDO_Communicate  Canopen.lib(canopen_pdo.o)
    0x08008a70   0x08008a70   0x00000110   Code   RO         4931    i.ODCallback_t_RPDO_Map  Canopen.lib(canopen_pdo.o)
    0x08008b80   0x08008b80   0x000000b4   Code   RO         4932    i.ODCallback_t_RPDO_MapSubindex0  Canopen.lib(canopen_pdo.o)
    0x08008c34   0x08008c34   0x000000b0   Code   RO         4933    i.ODCallback_t_TPDO_Communicate  Canopen.lib(canopen_pdo.o)
    0x08008ce4   0x08008ce4   0x000000c4   Code   RO         4934    i.ODCallback_t_TPDO_Map  Canopen.lib(canopen_pdo.o)
    0x08008da8   0x08008da8   0x000000b4   Code   RO         4935    i.ODCallback_t_TPDO_MapSubindex0  Canopen.lib(canopen_pdo.o)
    0x08008e5c   0x08008e5c   0x00000012   Code   RO         4882    i.OD_Index_san      Canopen.lib(canopen_objacces.o)
    0x08008e6e   0x08008e6e   0x00000002   PAD
    0x08008e70   0x08008e70   0x000006a0   Code   RO         4136    i.ObjDict_Get_Id    canopen_od.o
    0x08009510   0x08009510   0x00000728   Code   RO         4137    i.ObjDict_scanIndexOD  canopen_od.o
    0x08009c38   0x08009c38   0x0000001c   Code   RO         4138    i.ObjDict_valueRangeTest  canopen_od.o
    0x08009c54   0x08009c54   0x00000014   Code   RO         4522    i.OnHeartbeatProducerUpdate  Canopen.lib(canopen_lifegrd.o)
    0x08009c68   0x08009c68   0x00000026   Code   RO         5140    i.OnNumberOfErrorsUpdate  Canopen.lib(canopen_emcy.o)
    0x08009c8e   0x08009c8e   0x00000002   PAD
    0x08009c90   0x08009c90   0x00000118   Code   RO         3735    i.Over_VoltageCheck  function.o
    0x08009da8   0x08009da8   0x0000002c   Code   RO         4936    i.PDOEventTimerAlarm  Canopen.lib(canopen_pdo.o)
    0x08009dd4   0x08009dd4   0x0000002e   Code   RO         4937    i.PDOInhibitTimerAlarm  Canopen.lib(canopen_pdo.o)
    0x08009e02   0x08009e02   0x00000002   PAD
    0x08009e04   0x08009e04   0x0000004c   Code   RO         4938    i.PDOInit           Canopen.lib(canopen_pdo.o)
    0x08009e50   0x08009e50   0x00000072   Code   RO         4939    i.PDOStop           Canopen.lib(canopen_pdo.o)
    0x08009ec2   0x08009ec2   0x00000002   PAD
    0x08009ec4   0x08009ec4   0x000000a8   Code   RO         3928    i.PID_Init          mc_pid_regulators.o
    0x08009f6c   0x08009f6c   0x00000048   Code   RO         3929    i.PID_PWM_Init      mc_pid_regulators.o
    0x08009fb4   0x08009fb4   0x00000114   Code   RO         3930    i.PID_Regulator     mc_pid_regulators.o
    0x0800a0c8   0x0800a0c8   0x00000044   Code   RO           39    i.PWM_Change        main.o
    0x0800a10c   0x0800a10c   0x00000002   Code   RO          407    i.PendSV_Handler    stm32f4xx_it.o
    0x0800a10e   0x0800a10e   0x00000002   PAD
    0x0800a110   0x0800a110   0x00000044   Code   RO         4523    i.ProducerHeartbeatAlarm  Canopen.lib(canopen_lifegrd.o)
    0x0800a154   0x0800a154   0x0000001c   Code   RO         3736    i.Program_Version_Init  function.o
    0x0800a170   0x0800a170   0x000004b8   Code   RO         3737    i.Push_Motor_Calibrate  function.o
    0x0800a628   0x0800a628   0x0000032c   Code   RO         3738    i.Push_Motor_Cheek  function.o
    0x0800a954   0x0800a954   0x00000198   Code   RO         3739    i.Push_Motor_CurSelfAdapt  function.o
    0x0800aaec   0x0800aaec   0x00000140   Code   RO         3740    i.Push_Motor_Location_Control  function.o
    0x0800ac2c   0x0800ac2c   0x000001bc   Code   RO         3741    i.Push_OverRunChk   function.o
    0x0800ade8   0x0800ade8   0x0000007e   Code   RO         4940    i.RPDO_Direct_SetODentry  Canopen.lib(canopen_pdo.o)
    0x0800ae66   0x0800ae66   0x000000d2   Code   RO         4941    i.RPDO_Direct_Trans_Init  Canopen.lib(canopen_pdo.o)
    0x0800af38   0x0800af38   0x00000190   Code   RO         3980    i.Ramp_PPWM         bsp_bdcmotor.o
    0x0800b0c8   0x0800b0c8   0x00000174   Code   RO         3981    i.Ramp_Speed        bsp_bdcmotor.o
    0x0800b23c   0x0800b23c   0x00000024   Code   RO         4883    i.RegisterSetOnDentry_Callback  Canopen.lib(canopen_objacces.o)
    0x0800b260   0x0800b260   0x00000080   Code   RO         5202    i.SDOTimeoutAlarm   Canopen.lib(canopen_sdo.o)
    0x0800b2e0   0x0800b2e0   0x000006f4   Code   RO         5203    i.SDO_Email_Handler  Canopen.lib(canopen_sdo.o)
    0x0800b9d4   0x0800b9d4   0x00000038   Code   RO         5204    i.SDO_Err_Record    Canopen.lib(canopen_sdo.o)
    0x0800ba0c   0x0800ba0c   0x00000042   Code   RO         5205    i.SDOlineToObjdict  Canopen.lib(canopen_sdo.o)
    0x0800ba4e   0x0800ba4e   0x00000030   Code   RO         5206    i.SDOtoLine         Canopen.lib(canopen_sdo.o)
    0x0800ba7e   0x0800ba7e   0x00000002   Code   RO          408    i.SVC_Handler       stm32f4xx_it.o
    0x0800ba80   0x0800ba80   0x0000003c   Code   RO         4785    i.SendBootUp        Canopen.lib(canopen_nmt.o)
    0x0800babc   0x0800babc   0x00000060   Code   RO         5207    i.SendSDO           Canopen.lib(canopen_sdo.o)
    0x0800bb1c   0x0800bb1c   0x000000b4   Code   RO         4238    i.SetAlarm          canopen_timer.o
    0x0800bbd0   0x0800bbd0   0x00000a74   Code   RO         3983    i.SetMotorSpeed     bsp_bdcmotor.o
    0x0800c644   0x0800c644   0x000001f4   Code   RO         3984    i.SetMotorStop      bsp_bdcmotor.o
    0x0800c838   0x0800c838   0x00000114   Code   RO         4786    i.SetNodeId         Canopen.lib(canopen_nmt.o)
    0x0800c94c   0x0800c94c   0x0000009c   Code   RO         4787    i.SetState          Canopen.lib(canopen_nmt.o)
    0x0800c9e8   0x0800c9e8   0x00000028   Code   RO         5089    i.StopSync          Canopen.lib(canopen_sync.o)
    0x0800ca10   0x0800ca10   0x00000164   Code   RO         3985    i.Suction_motor_errhandle  bsp_bdcmotor.o
    0x0800cb74   0x0800cb74   0x000000de   Code   RO         4788    i.SwitchCommunication_State  Canopen.lib(canopen_nmt.o)
    0x0800cc52   0x0800cc52   0x0000000c   Code   RO          409    i.SysTick_Handler   stm32f4xx_it.o
    0x0800cc5e   0x0800cc5e   0x00000002   PAD
    0x0800cc60   0x0800cc60   0x0000005c   Code   RO           40    i.Sys_Time          main.o
    0x0800ccbc   0x0800ccbc   0x000000d8   Code   RO           41    i.SystemClock_Config  main.o
    0x0800cd94   0x0800cd94   0x0000001c   Code   RO         3679    i.SystemInit        system_stm32f4xx.o
    0x0800cdb0   0x0800cdb0   0x00000018   Code   RO          410    i.TIM1_BRK_TIM9_IRQHandler  stm32f4xx_it.o
    0x0800cdc8   0x0800cdc8   0x00000018   Code   RO          411    i.TIM1_UP_TIM10_IRQHandler  stm32f4xx_it.o
    0x0800cde0   0x0800cde0   0x00000010   Code   RO          412    i.TIM5_IRQHandler   stm32f4xx_it.o
    0x0800cdf0   0x0800cdf0   0x00000030   Code   RO         4239    i.TIM6_DAC_IRQHandler  canopen_timer.o
    0x0800ce20   0x0800ce20   0x00000074   Code   RO         4240    i.TIM6_Init         canopen_timer.o
    0x0800ce94   0x0800ce94   0x00000010   Code   RO          413    i.TIM7_IRQHandler   stm32f4xx_it.o
    0x0800cea4   0x0800cea4   0x00000010   Code   RO          414    i.TIM8_BRK_TIM12_IRQHandler  stm32f4xx_it.o
    0x0800ceb4   0x0800ceb4   0x000000d8   Code   RO         2468    i.TIM_Base_SetConfig  stm32f4xx_hal_tim.o
    0x0800cf8c   0x0800cf8c   0x00000022   Code   RO         2469    i.TIM_CCxChannelCmd  stm32f4xx_hal_tim.o
    0x0800cfae   0x0800cfae   0x00000022   Code   RO         3104    i.TIM_CCxNChannelCmd  stm32f4xx_hal_tim_ex.o
    0x0800cfd0   0x0800cfd0   0x00000016   Code   RO         2479    i.TIM_ETR_SetConfig  stm32f4xx_hal_tim.o
    0x0800cfe6   0x0800cfe6   0x00000012   Code   RO         2480    i.TIM_ITRx_SetConfig  stm32f4xx_hal_tim.o
    0x0800cff8   0x0800cff8   0x00000070   Code   RO         2481    i.TIM_OC1_SetConfig  stm32f4xx_hal_tim.o
    0x0800d068   0x0800d068   0x0000007c   Code   RO         2482    i.TIM_OC2_SetConfig  stm32f4xx_hal_tim.o
    0x0800d0e4   0x0800d0e4   0x00000078   Code   RO         2483    i.TIM_OC3_SetConfig  stm32f4xx_hal_tim.o
    0x0800d15c   0x0800d15c   0x00000054   Code   RO         2484    i.TIM_OC4_SetConfig  stm32f4xx_hal_tim.o
    0x0800d1b0   0x0800d1b0   0x00000026   Code   RO         2486    i.TIM_TI1_ConfigInputStage  stm32f4xx_hal_tim.o
    0x0800d1d6   0x0800d1d6   0x00000002   PAD
    0x0800d1d8   0x0800d1d8   0x00000090   Code   RO         2487    i.TIM_TI1_SetConfig  stm32f4xx_hal_tim.o
    0x0800d268   0x0800d268   0x00000028   Code   RO         2488    i.TIM_TI2_ConfigInputStage  stm32f4xx_hal_tim.o
    0x0800d290   0x0800d290   0x0000003a   Code   RO         2489    i.TIM_TI2_SetConfig  stm32f4xx_hal_tim.o
    0x0800d2ca   0x0800d2ca   0x00000038   Code   RO         2490    i.TIM_TI3_SetConfig  stm32f4xx_hal_tim.o
    0x0800d302   0x0800d302   0x0000003c   Code   RO         2491    i.TIM_TI4_SetConfig  stm32f4xx_hal_tim.o
    0x0800d33e   0x0800d33e   0x00000002   PAD
    0x0800d340   0x0800d340   0x000000c0   Code   RO         4241    i.TimeDispatch      canopen_timer.o
    0x0800d400   0x0800d400   0x00000048   Code   RO         4242    i.TimerForCan       canopen_timer.o
    0x0800d448   0x0800d448   0x00000014   Code   RO         3355    i.UART_DMAAbortOnError  stm32f4xx_hal_uart.o
    0x0800d45c   0x0800d45c   0x00000020   Code   RO         3365    i.UART_EndRxTransfer  stm32f4xx_hal_uart.o
    0x0800d47c   0x0800d47c   0x00000020   Code   RO         3366    i.UART_EndTransmit_IT  stm32f4xx_hal_uart.o
    0x0800d49c   0x0800d49c   0x000000a6   Code   RO         3368    i.UART_Receive_IT   stm32f4xx_hal_uart.o
    0x0800d542   0x0800d542   0x00000002   PAD
    0x0800d544   0x0800d544   0x000003e8   Code   RO         3369    i.UART_SetConfig    stm32f4xx_hal_uart.o
    0x0800d92c   0x0800d92c   0x00000068   Code   RO         3370    i.UART_Transmit_IT  stm32f4xx_hal_uart.o
    0x0800d994   0x0800d994   0x0000006c   Code   RO         3371    i.UART_WaitOnFlagUntilTimeout  stm32f4xx_hal_uart.o
    0x0800da00   0x0800da00   0x0000001c   Code   RO          415    i.USART3_IRQHandler  stm32f4xx_it.o
    0x0800da1c   0x0800da1c   0x00000004   Code   RO          416    i.UsageFault_Handler  stm32f4xx_it.o
    0x0800da20   0x0800da20   0x000000b8   Code   RO         3742    i.Voltage_offset_cali  function.o
    0x0800dad8   0x0800dad8   0x0000003c   Code   RO         4356    i.WriteData_toFlash  flash.o
    0x0800db14   0x0800db14   0x00000140   Code   RO         4943    i._RPOD_SyncEvent   Canopen.lib(canopen_pdo.o)
    0x0800dc54   0x0800dc54   0x00000002   Code   RO         4944    i._RxPDO_EventTimers_Handler  Canopen.lib(canopen_pdo.o)
    0x0800dc56   0x0800dc56   0x00000002   PAD
    0x0800dc58   0x0800dc58   0x00000020   Code   RO         5427    i.__0printf$3       mc_w.l(printf3.o)
    0x0800dc78   0x0800dc78   0x00000010   Code   RO         1868    i.__NVIC_GetPriorityGrouping  stm32f4xx_hal_cortex.o
    0x0800dc88   0x0800dc88   0x00000028   Code   RO         1869    i.__NVIC_SetPriority  stm32f4xx_hal_cortex.o
    0x0800dcb0   0x0800dcb0   0x0000000e   Code   RO         5647    i.__scatterload_copy  mc_w.l(handlers.o)
    0x0800dcbe   0x0800dcbe   0x00000002   Code   RO         5648    i.__scatterload_null  mc_w.l(handlers.o)
    0x0800dcc0   0x0800dcc0   0x0000000e   Code   RO         5649    i.__scatterload_zeroinit  mc_w.l(handlers.o)
    0x0800dcce   0x0800dcce   0x00000002   PAD
    0x0800dcd0   0x0800dcd0   0x000000ec   Code   RO         4884    i._getODentry       Canopen.lib(canopen_objacces.o)
    0x0800ddbc   0x0800ddbc   0x0000003c   Code   RO         4524    i._heartbeatError   Canopen.lib(canopen_lifegrd.o)
    0x0800ddf8   0x0800ddf8   0x00000002   Code   RO         4789    i._initialisation   Canopen.lib(canopen_nmt.o)
    0x0800ddfa   0x0800ddfa   0x00000002   Code   RO         4790    i._operational      Canopen.lib(canopen_nmt.o)
    0x0800ddfc   0x0800ddfc   0x00000002   Code   RO         4525    i._post_SlaveStateChange  Canopen.lib(canopen_lifegrd.o)
    0x0800ddfe   0x0800ddfe   0x00000002   Code   RO         5090    i._post_TPDO        Canopen.lib(canopen_sync.o)
    0x0800de00   0x0800de00   0x00000002   Code   RO         5091    i._post_sync        Canopen.lib(canopen_sync.o)
    0x0800de02   0x0800de02   0x00000002   Code   RO         4791    i._preOperational   Canopen.lib(canopen_nmt.o)
    0x0800de04   0x0800de04   0x000001b8   Code   RO         5434    i._printf_core      mc_w.l(printf3.o)
    0x0800dfbc   0x0800dfbc   0x00000158   Code   RO         4945    i._sendPDOevent     Canopen.lib(canopen_pdo.o)
    0x0800e114   0x0800e114   0x00000120   Code   RO         4885    i._setODentry       Canopen.lib(canopen_objacces.o)
    0x0800e234   0x0800e234   0x00000002   Code   RO         4139    i._storeODSubIndex  canopen_od.o
    0x0800e236   0x0800e236   0x000000d8   Code   RO         4946    i.buildPDO          Canopen.lib(canopen_pdo.o)
    0x0800e30e   0x0800e30e   0x00000002   PAD
    0x0800e310   0x0800e310   0x00000020   Code   RO         5142    i.emergencyInit     Canopen.lib(canopen_emcy.o)
    0x0800e330   0x0800e330   0x00000002   Code   RO         5143    i.emergencyStop     Canopen.lib(canopen_emcy.o)
    0x0800e332   0x0800e332   0x00000024   Code   RO         3743    i.f_abs             function.o
    0x0800e356   0x0800e356   0x00000098   Code   RO         5209    i.failedSDO         Canopen.lib(canopen_sdo.o)
    0x0800e3ee   0x0800e3ee   0x00000002   PAD
    0x0800e3f0   0x0800e3f0   0x0000001c   Code   RO           43    i.fputc             main.o
    0x0800e40c   0x0800e40c   0x00000024   Code   RO         4243    i.getElapsedTime    canopen_timer.o
    0x0800e430   0x0800e430   0x00000004   Code   RO         4793    i.getNodeId         Canopen.lib(canopen_nmt.o)
    0x0800e434   0x0800e434   0x00000030   Code   RO         5210    i.getSDOfreeLine    Canopen.lib(canopen_sdo.o)
    0x0800e464   0x0800e464   0x0000003a   Code   RO         5211    i.getSDOlineOnUse   Canopen.lib(canopen_sdo.o)
    0x0800e49e   0x0800e49e   0x00000022   Code   RO         5212    i.getSDOlineRestBytes  Canopen.lib(canopen_sdo.o)
    0x0800e4c0   0x0800e4c0   0x0000003c   Code   RO         4526    i.heartbeatInit     Canopen.lib(canopen_lifegrd.o)
    0x0800e4fc   0x0800e4fc   0x00000014   Code   RO         4527    i.heartbeatStop     Canopen.lib(canopen_lifegrd.o)
    0x0800e510   0x0800e510   0x00000080   Code   RO         5214    i.initSDOline       Canopen.lib(canopen_sdo.o)
    0x0800e590   0x0800e590   0x00000012   Code   RO         3744    i.l_abs             function.o
    0x0800e5a2   0x0800e5a2   0x00000004   Code   RO         4528    i.lifeGuardInit     Canopen.lib(canopen_lifegrd.o)
    0x0800e5a6   0x0800e5a6   0x00000004   Code   RO         4529    i.lifeGuardStop     Canopen.lib(canopen_lifegrd.o)
    0x0800e5aa   0x0800e5aa   0x0000003e   Code   RO         5215    i.lineToSDO         Canopen.lib(canopen_sdo.o)
    0x0800e5e8   0x0800e5e8   0x00000484   Code   RO           44    i.main              main.o
    0x0800ea6c   0x0800ea6c   0x00000042   Code   RO         5216    i.objdictToSDOline  Canopen.lib(canopen_sdo.o)
    0x0800eaae   0x0800eaae   0x00000002   PAD
    0x0800eab0   0x0800eab0   0x00000314   Code   RO         4947    i.proceedPDO        Canopen.lib(canopen_pdo.o)
    0x0800edc4   0x0800edc4   0x00000040   Code   RO         5092    i.proceedSYNC       Canopen.lib(canopen_sync.o)
    0x0800ee04   0x0800ee04   0x00000018   Code   RO         5217    i.resetSDO          Canopen.lib(canopen_sdo.o)
    0x0800ee1c   0x0800ee1c   0x00000038   Code   RO         5218    i.resetSDOline      Canopen.lib(canopen_sdo.o)
    0x0800ee54   0x0800ee54   0x00000114   Code   RO         4948    i.sendOnePDOevent   Canopen.lib(canopen_pdo.o)
    0x0800ef68   0x0800ef68   0x0000000c   Code   RO         4949    i.sendPDOevent      Canopen.lib(canopen_pdo.o)
    0x0800ef74   0x0800ef74   0x00000030   Code   RO         4951    i.sendPdo           Canopen.lib(canopen_pdo.o)
    0x0800efa4   0x0800efa4   0x00000010   Code   RO         5219    i.setSDOlineRestBytes  Canopen.lib(canopen_sdo.o)
    0x0800efb4   0x0800efb4   0x00000024   Code   RO         4244    i.setTimer          canopen_timer.o
    0x0800efd8   0x0800efd8   0x00000024   Code   RO         3745    i.swap              function.o
    0x0800effc   0x0800effc   0x00000040   Data   RO          417    .constdata          stm32f4xx_it.o
    0x0800f03c   0x0800f03c   0x00000008   Data   RO         1585    .constdata          stm32f4xx_hal_dma.o
    0x0800f044   0x0800f044   0x00000018   Data   RO         3680    .constdata          system_stm32f4xx.o
    0x0800f05c   0x0800f05c   0x000005a2   Data   RO         4141    .constdata          canopen_od.o
    0x0800f5fe   0x0800f5fe   0x00000002   PAD
    0x0800f600   0x0800f600   0x00000bb8   Data   RO         4420    .constdata          agreement.o
    0x080101b8   0x080101b8   0x00000040   Data   RO         4794    .constdata          Canopen.lib(canopen_nmt.o)
    0x080101f8   0x080101f8   0x00000020   Data   RO         5645    Region$$Table       anon$$obj.o


    Execution Region RW_IRAM2 (Exec base: 0x10000000, Load base: 0x08011320, Size: 0x00000000, Max: 0x00010000, ABSOLUTE)

    **** No section assigned to this execution region ****


    Execution Region RW_IRAM1 (Exec base: 0x20000000, Load base: 0x08010218, Size: 0x0000a5b0, Max: 0x00020000, ABSOLUTE, COMPRESSED[0x00001108])

    Exec Addr    Load Addr    Size         Type   Attr      Idx    E Section Name        Object

    0x20000000   COMPRESSED   0x00000078   Data   RW           46    .data               main.o
    0x20000078   COMPRESSED   0x00000044   Data   RW          418    .data               stm32f4xx_it.o
    0x200000bc   COMPRESSED   0x00000009   Data   RW         2017    .data               stm32f4xx_hal.o
    0x200000c5   COMPRESSED   0x00000003   PAD
    0x200000c8   COMPRESSED   0x00000004   Data   RW         3681    .data               system_stm32f4xx.o
    0x200000cc   COMPRESSED   0x000000e1   Data   RW         3747    .data               function.o
    0x200001ad   COMPRESSED   0x00000003   PAD
    0x200001b0   COMPRESSED   0x00000009   Data   RW         3987    .data               bsp_bdcmotor.o
    0x200001b9   COMPRESSED   0x00000003   PAD
    0x200001bc   COMPRESSED   0x00003760   Data   RW         4143    .data               canopen_od.o
    0x2000391c   COMPRESSED   0x00000014   Data   RW         4246    .data               canopen_timer.o
    0x20003930   COMPRESSED   0x00000018   Data   RW         4358    .data               flash.o
    0x20003948   COMPRESSED   0x00000020   Data   RW         4421    .data               agreement.o
    0x20003968   COMPRESSED   0x00000004   Data   RW         5625    .data               mc_w.l(stdout.o)
    0x2000396c        -       0x00004458   Zero   RW           45    .bss                main.o
    0x20007dc4        -       0x00000020   Zero   RW         1239    .bss                stm32f4xx_hal_flash.o
    0x20007de4        -       0x00000118   Zero   RW         3746    .bss                function.o
    0x20007efc        -       0x00000118   Zero   RW         3931    .bss                mc_pid_regulators.o
    0x20008014        -       0x0000072c   Zero   RW         3986    .bss                bsp_bdcmotor.o
    0x20008740        -       0x0000000c   Zero   RW         4090    .bss                bsp_iwdg.o
    0x2000874c        -       0x000003ac   Zero   RW         4140    .bss                canopen_od.o
    0x20008af8        -       0x00000100   Zero   RW         4245    .bss                canopen_timer.o
    0x20008bf8        -       0x000003fc   Zero   RW         4357    .bss                flash.o
    0x20008ff4        -       0x000005b8   Zero   RW         4419    .bss                agreement.o
    0x200095ac   COMPRESSED   0x00000004   PAD
    0x200095b0        -       0x00001000   Zero   RW            1    STACK               startup_stm32f407xx.o


==============================================================================

Image component sizes


      Code (inc. data)   RO Data    RW Data    ZI Data      Debug   Object Name

        94         20       3000         32       1464       3776   agreement.o
      6084        264          0          9       1836      16470   bsp_bdcmotor.o
        92         12          0          0         12       1394   bsp_iwdg.o
      3916        402       1442      14176        940      41820   canopen_od.o
       736         94          0         20        256      28086   canopen_timer.o
       632        100          0         24       1020       3871   flash.o
      8678        380          0        225        280      28165   function.o
      9586        690          0        120      17496     751871   main.o
       516         22          0          0        280       4395   mc_pid_regulators.o
        36          8        392          0       4096        976   startup_stm32f407xx.o
       212         36          0          9          0       9569   stm32f4xx_hal.o
      1970         92          0          0          0     723481   stm32f4xx_hal_adc.o
         2          0          0          0          0        625   stm32f4xx_hal_adc_ex.o
      2100         28          0          0          0       6222   stm32f4xx_hal_can.o
       420         28          0          0          0      36600   stm32f4xx_hal_cortex.o
      1264         16          8          0          0       6374   stm32f4xx_hal_dma.o
       652         64          0          0         32       6206   stm32f4xx_hal_flash.o
       432         26          0          0          0       3366   stm32f4xx_hal_flash_ex.o
       586         50          0          0          0       4375   stm32f4xx_hal_gpio.o
        94          0          0          0          0       1811   stm32f4xx_hal_iwdg.o
      2232        160          0          0          0       6103   stm32f4xx_hal_msp.o
      1800         84          0          0          0       5768   stm32f4xx_hal_rcc.o
      3080        128          0          0          0      24660   stm32f4xx_hal_tim.o
       388         30          0          0          0       4266   stm32f4xx_hal_tim_ex.o
      2248         12          0          0          0      10303   stm32f4xx_hal_uart.o
      2466        170         64         68          0      16154   stm32f4xx_it.o
        28          4         24          4          0       1199   system_stm32f4xx.o

    ----------------------------------------------------------------------
     50390       2920       4964      14696      27716    1747906   Object Totals
         0          0         32          0          0          0   (incl. Generated)
        46          0          2          9          4          0   (incl. Padding)

    ----------------------------------------------------------------------

      Code (inc. data)   RO Data    RW Data    ZI Data      Debug   Library Member Name

        72          4          0          0          0       1801   canopen_emcy.o
       608         44          0          0          0     602499   canopen_lifegrd.o
       994         26         64          0          0       7964   canopen_nmt.o
       578         36          0          0          0       4502   canopen_objacces.o
      3862         92          0          0          0      23355   canopen_pdo.o
      2818         58          0          0          0      14862   canopen_sdo.o
       108         16          0          0          0       2239   canopen_sync.o
        86          0          0          0          0          0   __dczerorl2.o
         0          0          0          0          0          0   entry.o
         0          0          0          0          0          0   entry10a.o
         0          0          0          0          0          0   entry11a.o
         8          4          0          0          0          0   entry2.o
         4          0          0          0          0          0   entry5.o
         0          0          0          0          0          0   entry7b.o
         0          0          0          0          0          0   entry8b.o
         8          4          0          0          0          0   entry9a.o
        30          0          0          0          0          0   handlers.o
        36          8          0          0          0         68   init.o
         0          0          0          0          0          0   iusefp.o
        30          0          0          0          0         68   llshl.o
        32          0          0          0          0         68   llushr.o
        26          0          0          0          0         80   memcmp.o
        36          0          0          0          0         68   memcpya.o
        36          0          0          0          0        108   memseta.o
       472         14          0          0          0        184   printf3.o
         0          0          0          4          0          0   stdout.o
        44          0          0          0          0         80   uidiv.o
        98          0          0          0          0         92   uldiv.o
        48          0          0          0          0         68   cdcmple.o
        48          0          0          0          0         68   cdrcmple.o
       186          0          0          0          0        176   depilogue.o
        62          0          0          0          0         80   dfixi.o
        34          0          0          0          0         76   dflti.o
       228          0          0          0          0         96   dmul.o
        38          0          0          0          0         68   f2d.o

    ----------------------------------------------------------------------
     10654        306         64          4          0     658670   Library Totals
        24          0          0          0          0          0   (incl. Padding)

    ----------------------------------------------------------------------

      Code (inc. data)   RO Data    RW Data    ZI Data      Debug   Library Name

      9040        276         64          0          0     657222   Canopen.lib
       946         30          0          4          0        816   mc_w.l
       644          0          0          0          0        632   mf_w.l

    ----------------------------------------------------------------------
     10654        306         64          4          0     658670   Library Totals

    ----------------------------------------------------------------------

==============================================================================


      Code (inc. data)   RO Data    RW Data    ZI Data      Debug   

     61044       3226       5028      14700      27716    2375232   Grand Totals
     61044       3226       5028       4360      27716    2375232   ELF Image Totals (compressed)
     61044       3226       5028       4360          0          0   ROM Totals

==============================================================================

    Total RO  Size (Code + RO Data)                66072 (  64.52kB)
    Total RW  Size (RW Data + ZI Data)             42416 (  41.42kB)
    Total ROM Size (Code + RO Data + RW Data)      70432 (  68.78kB)

==============================================================================

